
POOMAv1_0.elf:     file format elf32-littleriscv
POOMAv1_0.elf
architecture: riscv:rv32, flags 0x00000112:
EXEC_P, HAS_SYMS, D_PAGED
start address 0x80000000

Program Header:
    LOAD off    0x00001000 vaddr 0x80000000 paddr 0x80000000 align 2**12
         filesz 0x000021e0 memsz 0x000021fc flags rwx

Sections:
Idx Name                              Size      VMA       LMA       File off  Algn  Flags
  0 .text                             000000ec  80000000  80000000  00001000  2**2  CONTENTS, ALLOC, LOAD, READONLY, CODE
  1 .text._close                      00000024  800000ec  800000ec  000010ec  2**2  CONTENTS, ALLOC, LOAD, READONLY, CODE
  2 .text._fstat                      00000034  80000110  80000110  00001110  2**2  CONTENTS, ALLOC, LOAD, READONLY, CODE
  3 .text._isatty                     00000024  80000144  80000144  00001144  2**2  CONTENTS, ALLOC, LOAD, READONLY, CODE
  4 .text._lseek                      0000002c  80000168  80000168  00001168  2**2  CONTENTS, ALLOC, LOAD, READONLY, CODE
  5 .text._read                       0000002c  80000194  80000194  00001194  2**2  CONTENTS, ALLOC, LOAD, READONLY, CODE
  6 .text._sbrk                       0000009c  800001c0  800001c0  000011c0  2**2  CONTENTS, ALLOC, LOAD, READONLY, CODE
  7 .text.outbyte                     00000060  8000025c  8000025c  0000125c  2**2  CONTENTS, ALLOC, LOAD, READONLY, CODE
  8 .text._write                      0000006c  800002bc  800002bc  000012bc  2**2  CONTENTS, ALLOC, LOAD, READONLY, CODE
  9 .text.exception_handler           0000001c  80000328  80000328  00001328  2**2  CONTENTS, ALLOC, LOAD, READONLY, CODE
 10 .text.l_1_caeco_interrupt_handler 00000068  80000344  80000344  00001344  2**2  CONTENTS, ALLOC, LOAD, READONLY, CODE
 11 .text.main                        000000c8  800003ac  800003ac  000013ac  2**2  CONTENTS, ALLOC, LOAD, READONLY, CODE
 12 .text.malloc                      00000014  80000474  80000474  00001474  2**2  CONTENTS, ALLOC, LOAD, READONLY, CODE
 13 .text._free_r                     0000010c  80000488  80000488  00001488  2**2  CONTENTS, ALLOC, LOAD, READONLY, CODE
 14 .text._malloc_r                   0000015c  80000594  80000594  00001594  2**2  CONTENTS, ALLOC, LOAD, READONLY, CODE
 15 .text.printf                      0000007c  800006f0  800006f0  000016f0  2**2  CONTENTS, ALLOC, LOAD, READONLY, CODE
 16 .text._puts_r                     00000160  8000076c  8000076c  0000176c  2**2  CONTENTS, ALLOC, LOAD, READONLY, CODE
 17 .text.puts                        00000014  800008cc  800008cc  000018cc  2**2  CONTENTS, ALLOC, LOAD, READONLY, CODE
 18 .text._sbrk_r                     0000004c  800008e0  800008e0  000018e0  2**2  CONTENTS, ALLOC, LOAD, READONLY, CODE
 19 .text.write                       0000001c  8000092c  8000092c  0000192c  2**2  CONTENTS, ALLOC, LOAD, READONLY, CODE
 20 .text.__swbuf_r                   00000138  80000948  80000948  00001948  2**2  CONTENTS, ALLOC, LOAD, READONLY, CODE
 21 .text._write_r                    00000054  80000a80  80000a80  00001a80  2**2  CONTENTS, ALLOC, LOAD, READONLY, CODE
 22 .text.__swsetup_r                 00000180  80000ad4  80000ad4  00001ad4  2**2  CONTENTS, ALLOC, LOAD, READONLY, CODE
 23 .text.__sflush_r                  000001ec  80000c54  80000c54  00001c54  2**2  CONTENTS, ALLOC, LOAD, READONLY, CODE
 24 .text._fflush_r                   000000a0  80000e40  80000e40  00001e40  2**2  CONTENTS, ALLOC, LOAD, READONLY, CODE
 25 .text.std                         00000088  80000ee0  80000ee0  00001ee0  2**2  CONTENTS, ALLOC, LOAD, READONLY, CODE
 26 .text._cleanup_r                  0000000c  80000f68  80000f68  00001f68  2**2  CONTENTS, ALLOC, LOAD, READONLY, CODE
 27 .text.__sfmoreglue                0000006c  80000f74  80000f74  00001f74  2**2  CONTENTS, ALLOC, LOAD, READONLY, CODE
 28 .text.__sinit                     000000b4  80000fe0  80000fe0  00001fe0  2**2  CONTENTS, ALLOC, LOAD, READONLY, CODE
 29 .text.__sfp                       000000f0  80001094  80001094  00002094  2**2  CONTENTS, ALLOC, LOAD, READONLY, CODE
 30 .text._fwalk_reent                000000b4  80001184  80001184  00002184  2**2  CONTENTS, ALLOC, LOAD, READONLY, CODE
 31 .text.__swhatbuf_r                0000008c  80001238  80001238  00002238  2**2  CONTENTS, ALLOC, LOAD, READONLY, CODE
 32 .text.__smakebuf_r                000000f0  800012c4  800012c4  000022c4  2**2  CONTENTS, ALLOC, LOAD, READONLY, CODE
 33 .text.__malloc_lock               00000004  800013b4  800013b4  000023b4  2**2  CONTENTS, ALLOC, LOAD, READONLY, CODE
 34 .text.__malloc_unlock             00000004  800013b8  800013b8  000023b8  2**2  CONTENTS, ALLOC, LOAD, READONLY, CODE
 35 .text.__sfputc_r                  0000003c  800013bc  800013bc  000023bc  2**2  CONTENTS, ALLOC, LOAD, READONLY, CODE
 36 .text.__sfputs_r                  00000074  800013f8  800013f8  000023f8  2**2  CONTENTS, ALLOC, LOAD, READONLY, CODE
 37 .text._vfprintf_r                 000003c8  8000146c  8000146c  0000246c  2**2  CONTENTS, ALLOC, LOAD, READONLY, CODE
 38 .text.__sread                     00000050  80001834  80001834  00002834  2**2  CONTENTS, ALLOC, LOAD, READONLY, CODE
 39 .text.__swrite                    00000084  80001884  80001884  00002884  2**2  CONTENTS, ALLOC, LOAD, READONLY, CODE
 40 .text.__sseek                     00000058  80001908  80001908  00002908  2**2  CONTENTS, ALLOC, LOAD, READONLY, CODE
 41 .text.__sclose                    00000008  80001960  80001960  00002960  2**2  CONTENTS, ALLOC, LOAD, READONLY, CODE
 42 .text._close_r                    0000004c  80001968  80001968  00002968  2**2  CONTENTS, ALLOC, LOAD, READONLY, CODE
 43 .text._fstat_r                    00000050  800019b4  800019b4  000029b4  2**2  CONTENTS, ALLOC, LOAD, READONLY, CODE
 44 .text._isatty_r                   0000004c  80001a04  80001a04  00002a04  2**2  CONTENTS, ALLOC, LOAD, READONLY, CODE
 45 .text._lseek_r                    00000054  80001a50  80001a50  00002a50  2**2  CONTENTS, ALLOC, LOAD, READONLY, CODE
 46 .text.memchr                      00000024  80001aa4  80001aa4  00002aa4  2**2  CONTENTS, ALLOC, LOAD, READONLY, CODE
 47 .text._printf_common              000001b0  80001ac8  80001ac8  00002ac8  2**2  CONTENTS, ALLOC, LOAD, READONLY, CODE
 48 .text._printf_i                   000003cc  80001c78  80001c78  00002c78  2**2  CONTENTS, ALLOC, LOAD, READONLY, CODE
 49 .text._read_r                     00000054  80002044  80002044  00003044  2**2  CONTENTS, ALLOC, LOAD, READONLY, CODE
 50 .data                             00000000  800000ec  800021e0  000031e0  2**0  CONTENTS, ALLOC, LOAD, DATA
 51 .data.impure_data                 00000060  80002098  80002098  00003098  2**2  CONTENTS, ALLOC, LOAD, DATA
 52 .sdata._impure_ptr                00000004  800020f8  800020f8  000030f8  2**2  CONTENTS, ALLOC, LOAD, DATA
 53 .rodata                           00000042  800020fc  800020fc  000030fc  2**2  CONTENTS, ALLOC, LOAD, READONLY, DATA
 54 .rodata.__sf_fake_stderr          00000020  80002140  80002140  00003140  2**2  CONTENTS, ALLOC, LOAD, READONLY, DATA
 55 .rodata.__sf_fake_stdin           00000020  80002160  80002160  00003160  2**2  CONTENTS, ALLOC, LOAD, READONLY, DATA
 56 .rodata.__sf_fake_stdout          00000020  80002180  80002180  00003180  2**2  CONTENTS, ALLOC, LOAD, READONLY, DATA
 57 .sdata2._global_impure_ptr        00000004  800021a0  800021a0  000031a0  2**2  CONTENTS, ALLOC, LOAD, READONLY, DATA
 58 .rodata._vfprintf_r.str1.4        00000014  800021a4  800021a4  000031a4  2**2  CONTENTS, ALLOC, LOAD, READONLY, DATA
 59 .rodata._printf_i.str1.4          00000028  800021b8  800021b8  000031b8  2**2  CONTENTS, ALLOC, LOAD, READONLY, DATA
 60 .bss                              0000001c  800021e0  800021e0  000031e0  2**2  ALLOC
 61 .debug_info                       00001a90  00000000  00000000  000031e0  2**0  CONTENTS, READONLY, DEBUGGING
 62 .debug_abbrev                     00000523  00000000  00000000  00004c70  2**0  CONTENTS, READONLY, DEBUGGING
 63 .debug_aranges                    00000100  00000000  00000000  00005198  2**3  CONTENTS, READONLY, DEBUGGING
 64 .debug_ranges                     000000c0  00000000  00000000  00005298  2**0  CONTENTS, READONLY, DEBUGGING
 65 .debug_macro                      00002200  00000000  00000000  00005358  2**0  CONTENTS, READONLY, DEBUGGING
 66 .debug_line                       00000e5e  00000000  00000000  00007558  2**0  CONTENTS, READONLY, DEBUGGING
 67 .debug_str                        00007daa  00000000  00000000  000083b6  2**0  CONTENTS, READONLY, DEBUGGING
 68 .comment                          00000033  00000000  00000000  00010160  2**0  CONTENTS, READONLY
 69 .debug_frame                      00000c04  00000000  00000000  00010194  2**2  CONTENTS, READONLY, DEBUGGING
SYMBOL TABLE:
80000000 l    d  .text	00000000 .text
800000ec l    d  .text._close	00000000 .text._close
80000110 l    d  .text._fstat	00000000 .text._fstat
80000144 l    d  .text._isatty	00000000 .text._isatty
80000168 l    d  .text._lseek	00000000 .text._lseek
80000194 l    d  .text._read	00000000 .text._read
800001c0 l    d  .text._sbrk	00000000 .text._sbrk
8000025c l    d  .text.outbyte	00000000 .text.outbyte
800002bc l    d  .text._write	00000000 .text._write
80000328 l    d  .text.exception_handler	00000000 .text.exception_handler
80000344 l    d  .text.l_1_caeco_interrupt_handler	00000000 .text.l_1_caeco_interrupt_handler
800003ac l    d  .text.main	00000000 .text.main
80000474 l    d  .text.malloc	00000000 .text.malloc
80000488 l    d  .text._free_r	00000000 .text._free_r
80000594 l    d  .text._malloc_r	00000000 .text._malloc_r
800006f0 l    d  .text.printf	00000000 .text.printf
8000076c l    d  .text._puts_r	00000000 .text._puts_r
800008cc l    d  .text.puts	00000000 .text.puts
800008e0 l    d  .text._sbrk_r	00000000 .text._sbrk_r
8000092c l    d  .text.write	00000000 .text.write
80000948 l    d  .text.__swbuf_r	00000000 .text.__swbuf_r
80000a80 l    d  .text._write_r	00000000 .text._write_r
80000ad4 l    d  .text.__swsetup_r	00000000 .text.__swsetup_r
80000c54 l    d  .text.__sflush_r	00000000 .text.__sflush_r
80000e40 l    d  .text._fflush_r	00000000 .text._fflush_r
80000ee0 l    d  .text.std	00000000 .text.std
80000f68 l    d  .text._cleanup_r	00000000 .text._cleanup_r
80000f74 l    d  .text.__sfmoreglue	00000000 .text.__sfmoreglue
80000fe0 l    d  .text.__sinit	00000000 .text.__sinit
80001094 l    d  .text.__sfp	00000000 .text.__sfp
80001184 l    d  .text._fwalk_reent	00000000 .text._fwalk_reent
80001238 l    d  .text.__swhatbuf_r	00000000 .text.__swhatbuf_r
800012c4 l    d  .text.__smakebuf_r	00000000 .text.__smakebuf_r
800013b4 l    d  .text.__malloc_lock	00000000 .text.__malloc_lock
800013b8 l    d  .text.__malloc_unlock	00000000 .text.__malloc_unlock
800013bc l    d  .text.__sfputc_r	00000000 .text.__sfputc_r
800013f8 l    d  .text.__sfputs_r	00000000 .text.__sfputs_r
8000146c l    d  .text._vfprintf_r	00000000 .text._vfprintf_r
80001834 l    d  .text.__sread	00000000 .text.__sread
80001884 l    d  .text.__swrite	00000000 .text.__swrite
80001908 l    d  .text.__sseek	00000000 .text.__sseek
80001960 l    d  .text.__sclose	00000000 .text.__sclose
80001968 l    d  .text._close_r	00000000 .text._close_r
800019b4 l    d  .text._fstat_r	00000000 .text._fstat_r
80001a04 l    d  .text._isatty_r	00000000 .text._isatty_r
80001a50 l    d  .text._lseek_r	00000000 .text._lseek_r
80001aa4 l    d  .text.memchr	00000000 .text.memchr
80001ac8 l    d  .text._printf_common	00000000 .text._printf_common
80001c78 l    d  .text._printf_i	00000000 .text._printf_i
80002044 l    d  .text._read_r	00000000 .text._read_r
800000ec l    d  .data	00000000 .data
80002098 l    d  .data.impure_data	00000000 .data.impure_data
800020f8 l    d  .sdata._impure_ptr	00000000 .sdata._impure_ptr
800020fc l    d  .rodata	00000000 .rodata
80002140 l    d  .rodata.__sf_fake_stderr	00000000 .rodata.__sf_fake_stderr
80002160 l    d  .rodata.__sf_fake_stdin	00000000 .rodata.__sf_fake_stdin
80002180 l    d  .rodata.__sf_fake_stdout	00000000 .rodata.__sf_fake_stdout
800021a0 l    d  .sdata2._global_impure_ptr	00000000 .sdata2._global_impure_ptr
800021a4 l    d  .rodata._vfprintf_r.str1.4	00000000 .rodata._vfprintf_r.str1.4
800021b8 l    d  .rodata._printf_i.str1.4	00000000 .rodata._printf_i.str1.4
800021e0 l    d  .bss	00000000 .bss
00000000 l    d  .debug_info	00000000 .debug_info
00000000 l    d  .debug_abbrev	00000000 .debug_abbrev
00000000 l    d  .debug_aranges	00000000 .debug_aranges
00000000 l    d  .debug_ranges	00000000 .debug_ranges
00000000 l    d  .debug_macro	00000000 .debug_macro
00000000 l    d  .debug_line	00000000 .debug_line
00000000 l    d  .debug_str	00000000 .debug_str
00000000 l    d  .comment	00000000 .comment
00000000 l    d  .debug_frame	00000000 .debug_frame
00000000 l    df *ABS*	00000000 ./crt0.o
800000c4 l       .text	00000000 trap_handler
800000bc l       .text	00000000 zero_loop_end
800000b0 l       .text	00000000 zero_loop
00000000 l    df *ABS*	00000000 airi5c_syscalls.c
800021e0 l     O .bss	00000004 heap_end.2982
00000000 l    df *ABS*	00000000 main.c
00000000 l    df *ABS*	00000000 malloc.c
00000000 l    df *ABS*	00000000 nano-mallocr.c
00000000 l    df *ABS*	00000000 nano-mallocr.c
00000000 l    df *ABS*	00000000 printf.c
00000000 l    df *ABS*	00000000 puts.c
00000000 l    df *ABS*	00000000 sbrkr.c
00000000 l    df *ABS*	00000000 syswrite.c
00000000 l    df *ABS*	00000000 wbuf.c
00000000 l    df *ABS*	00000000 writer.c
00000000 l    df *ABS*	00000000 wsetup.c
00000000 l    df *ABS*	00000000 fflush.c
00000000 l    df *ABS*	00000000 findfp.c
80000ee0 l     F .text.std	00000088 std
00000000 l    df *ABS*	00000000 fwalk.c
00000000 l    df *ABS*	00000000 makebuf.c
00000000 l    df *ABS*	00000000 mlock.c
00000000 l    df *ABS*	00000000 nano-vfprintf.c
800013bc l     F .text.__sfputc_r	0000003c __sfputc_r
00000000 l    df *ABS*	00000000 stdio.c
00000000 l    df *ABS*	00000000 closer.c
00000000 l    df *ABS*	00000000 fstatr.c
00000000 l    df *ABS*	00000000 isattyr.c
00000000 l    df *ABS*	00000000 lseekr.c
00000000 l    df *ABS*	00000000 memchr.c
00000000 l    df *ABS*	00000000 nano-vfprintf_i.c
00000000 l    df *ABS*	00000000 readr.c
00000000 l    df *ABS*	00000000 impure.c
80002098 l     O .data.impure_data	00000060 impure_data
00000000 l    df *ABS*	00000000 reent.c
80001a04 g     F .text._isatty_r	0000004c _isatty_r
8000076c g     F .text._puts_r	00000160 _puts_r
80001a50 g     F .text._lseek_r	00000054 _lseek_r
800021ec g     O .bss	00000004 storage
800006f0 g     F .text.printf	0000007c printf
800000ec g       .text	00000000 __global_pointer$
80001908 g     F .text.__sseek	00000058 __sseek
80000fe0 g     F .text.__sinit	000000b4 __sinit
80000948 g     F .text.__swbuf_r	00000138 __swbuf_r
80000f74 g     F .text.__sfmoreglue	0000006c __sfmoreglue
800013b8 g     F .text.__malloc_unlock	00000004 __malloc_unlock
800019b4 g     F .text._fstat_r	00000050 _fstat_r
800021f8 g     O .bss	00000004 errno
80000f68 g     F .text._cleanup_r	0000000c _cleanup_r
800008cc g     F .text.puts	00000014 puts
80000474 g     F .text.malloc	00000014 malloc
80000110 g     F .text._fstat	00000034 _fstat
800021e0 g       .bss	00000000 _bss_start
800008e0 g     F .text._sbrk_r	0000004c _sbrk_r
80002044 g     F .text._read_r	00000054 _read_r
80000144 g     F .text._isatty	00000024 _isatty
800021a0 g     O .sdata2._global_impure_ptr	00000004 _global_impure_ptr
800001c0 g     F .text._sbrk	0000009c _sbrk
80000344 g     F .text.l_1_caeco_interrupt_handler	00000068 l_1_caeco_interrupt_handler
800021f8 g       .bss	00000000 _bss_end
8000092c g     F .text.write	0000001c write
80002140 g     O .rodata.__sf_fake_stderr	00000020 __sf_fake_stderr
800013f8 g     F .text.__sfputs_r	00000074 __sfputs_r
80001aa4 g     F .text.memchr	00000024 memchr
80000488 g     F .text._free_r	0000010c _free_r
80000000 g     F .text	00000000 _start
800021f8 g       .bss	00000000 __end
80000168 g     F .text._lseek	0000002c _lseek
80001968 g     F .text._close_r	0000004c _close_r
80000ad4 g     F .text.__swsetup_r	00000180 __swsetup_r
80001094 g     F .text.__sfp	000000f0 __sfp
c0000000 g       *ABS*	00000000 _uart_dreg
80001834 g     F .text.__sread	00000050 __sread
8000025c g     F .text.outbyte	00000060 outbyte
800013b4 g     F .text.__malloc_lock	00000004 __malloc_lock
80000e40 g     F .text._fflush_r	000000a0 _fflush_r
80002160 g     O .rodata.__sf_fake_stdin	00000020 __sf_fake_stdin
800000d0 g     F .text	0000001c memset
800003ac g     F .text.main	000000c8 main
800021e8 g     O .bss	00000004 out_res
80001960 g     F .text.__sclose	00000008 __sclose
80000594 g     F .text._malloc_r	0000015c _malloc_r
800021e4 g     O .bss	00000004 cur_res
800006f0 g     F .text.printf	0000007c iprintf
80000a80 g     F .text._write_r	00000054 _write_r
80001ac8 g     F .text._printf_common	000001b0 _printf_common
800020f8 g     O .sdata._impure_ptr	00000004 _impure_ptr
80000c54 g     F .text.__sflush_r	000001ec __sflush_r
80001238 g     F .text.__swhatbuf_r	0000008c __swhatbuf_r
800061fc g       .bss	00000000 __stack
800002bc g     F .text._write	0000006c _write
80001884 g     F .text.__swrite	00000084 __swrite
8000146c g     F .text._vfprintf_r	000003c8 _vfiprintf_r
80001184 g     F .text._fwalk_reent	000000b4 _fwalk_reent
80002180 g     O .rodata.__sf_fake_stdout	00000020 __sf_fake_stdout
80000194 g     F .text._read	0000002c _read
c0000008 g       *ABS*	00000000 _gpio_dreg
c000000c g       *ABS*	00000000 _gpio_creg
800012c4 g     F .text.__smakebuf_r	000000f0 __smakebuf_r
80000000 g       .text	00000000 _stext
80001c78 g     F .text._printf_i	000003cc _printf_i
800021f4 g     O .bss	00000004 __malloc_sbrk_start
800021f0 g     O .bss	00000004 __malloc_free_list
8000146c g     F .text._vfprintf_r	000003c8 _vfprintf_r
80000328 g     F .text.exception_handler	0000001c exception_handler
800000ec g     F .text._close	00000024 _close



Disassembly of section .text:

80000000 <_start>:
_start():
C:\Users\Michael\Documents\eclipse-workspace\POOMAv1_0\Debug/../crt0.S:13
	// risc-v standard initialisation
	.cfi_startproc
	.cfi_undefined ra
	.option push
	.option norelax
	la		gp, __global_pointer$
80000000:	00000197          	auipc	gp,0x0
80000004:	0ec18193          	addi	gp,gp,236 # 800000ec <__global_pointer$>
C:\Users\Michael\Documents\eclipse-workspace\POOMAv1_0\Debug/../crt0.S:15
	.option pop
	la		sp, __stack
80000008:	00006117          	auipc	sp,0x6
8000000c:	1f410113          	addi	sp,sp,500 # 800061fc <__stack>
C:\Users\Michael\Documents\eclipse-workspace\POOMAv1_0\Debug/../crt0.S:23
	.type exception_handler, @function
	// referencing the interrupt function
	.globl l_1_caeco_interrupt_handler
	.type l_1_caeco_interrupt_handler, @function
	// write the mstatus register, to enable the interrupts
	csrwi mstatus, 0x1F
80000010:	300fd073          	csrwi	mstatus,31
C:\Users\Michael\Documents\eclipse-workspace\POOMAv1_0\Debug/../crt0.S:26
	// loading the handler address
//	la		x29, l_0_caeco_interrupt_handler
	la		x29, trap_handler
80000014:	00000e97          	auipc	t4,0x0
80000018:	0b0e8e93          	addi	t4,t4,176 # 800000c4 <trap_handler>
C:\Users\Michael\Documents\eclipse-workspace\POOMAv1_0\Debug/../crt0.S:27
	csrw	mtvec, x29
8000001c:	305e9073          	csrw	mtvec,t4
C:\Users\Michael\Documents\eclipse-workspace\POOMAv1_0\Debug/../crt0.S:29
	//	clear GPRs
	mv		x1, x0
80000020:	00000093          	li	ra,0
C:\Users\Michael\Documents\eclipse-workspace\POOMAv1_0\Debug/../crt0.S:30
	mv		x2, x1
80000024:	00008113          	mv	sp,ra
C:\Users\Michael\Documents\eclipse-workspace\POOMAv1_0\Debug/../crt0.S:31
	mv		x3, x1
80000028:	00008193          	mv	gp,ra
C:\Users\Michael\Documents\eclipse-workspace\POOMAv1_0\Debug/../crt0.S:32
	mv		x4, x1
8000002c:	00008213          	mv	tp,ra
C:\Users\Michael\Documents\eclipse-workspace\POOMAv1_0\Debug/../crt0.S:33
	mv		x5, x1
80000030:	00008293          	mv	t0,ra
C:\Users\Michael\Documents\eclipse-workspace\POOMAv1_0\Debug/../crt0.S:34
	mv		x6, x1
80000034:	00008313          	mv	t1,ra
C:\Users\Michael\Documents\eclipse-workspace\POOMAv1_0\Debug/../crt0.S:35
	mv		x7, x1
80000038:	00008393          	mv	t2,ra
C:\Users\Michael\Documents\eclipse-workspace\POOMAv1_0\Debug/../crt0.S:36
	mv		x8, x1
8000003c:	00008413          	mv	s0,ra
C:\Users\Michael\Documents\eclipse-workspace\POOMAv1_0\Debug/../crt0.S:37
	mv		x9, x1
80000040:	00008493          	mv	s1,ra
C:\Users\Michael\Documents\eclipse-workspace\POOMAv1_0\Debug/../crt0.S:38
	mv		x10, x1
80000044:	00008513          	mv	a0,ra
C:\Users\Michael\Documents\eclipse-workspace\POOMAv1_0\Debug/../crt0.S:39
	mv		x11, x1
80000048:	00008593          	mv	a1,ra
C:\Users\Michael\Documents\eclipse-workspace\POOMAv1_0\Debug/../crt0.S:40
	mv		x12, x1
8000004c:	00008613          	mv	a2,ra
C:\Users\Michael\Documents\eclipse-workspace\POOMAv1_0\Debug/../crt0.S:41
	mv		x13, x1
80000050:	00008693          	mv	a3,ra
C:\Users\Michael\Documents\eclipse-workspace\POOMAv1_0\Debug/../crt0.S:42
	mv		x14, x1
80000054:	00008713          	mv	a4,ra
C:\Users\Michael\Documents\eclipse-workspace\POOMAv1_0\Debug/../crt0.S:43
	mv		x15, x1
80000058:	00008793          	mv	a5,ra
C:\Users\Michael\Documents\eclipse-workspace\POOMAv1_0\Debug/../crt0.S:44
	mv		x16, x1
8000005c:	00008813          	mv	a6,ra
C:\Users\Michael\Documents\eclipse-workspace\POOMAv1_0\Debug/../crt0.S:45
	mv		x17, x1
80000060:	00008893          	mv	a7,ra
C:\Users\Michael\Documents\eclipse-workspace\POOMAv1_0\Debug/../crt0.S:46
	mv		x18, x1
80000064:	00008913          	mv	s2,ra
C:\Users\Michael\Documents\eclipse-workspace\POOMAv1_0\Debug/../crt0.S:47
	mv		x19, x1
80000068:	00008993          	mv	s3,ra
C:\Users\Michael\Documents\eclipse-workspace\POOMAv1_0\Debug/../crt0.S:48
	mv		x20, x1
8000006c:	00008a13          	mv	s4,ra
C:\Users\Michael\Documents\eclipse-workspace\POOMAv1_0\Debug/../crt0.S:49
	mv		x21, x1
80000070:	00008a93          	mv	s5,ra
C:\Users\Michael\Documents\eclipse-workspace\POOMAv1_0\Debug/../crt0.S:50
	mv		x22, x1
80000074:	00008b13          	mv	s6,ra
C:\Users\Michael\Documents\eclipse-workspace\POOMAv1_0\Debug/../crt0.S:51
	mv		x23, x1
80000078:	00008b93          	mv	s7,ra
C:\Users\Michael\Documents\eclipse-workspace\POOMAv1_0\Debug/../crt0.S:52
	mv		x24, x1
8000007c:	00008c13          	mv	s8,ra
C:\Users\Michael\Documents\eclipse-workspace\POOMAv1_0\Debug/../crt0.S:53
	mv		x25, x1
80000080:	00008c93          	mv	s9,ra
C:\Users\Michael\Documents\eclipse-workspace\POOMAv1_0\Debug/../crt0.S:54
	mv		x26, x1
80000084:	00008d13          	mv	s10,ra
C:\Users\Michael\Documents\eclipse-workspace\POOMAv1_0\Debug/../crt0.S:55
	mv		x27, x1
80000088:	00008d93          	mv	s11,ra
C:\Users\Michael\Documents\eclipse-workspace\POOMAv1_0\Debug/../crt0.S:56
	mv		x28, x1
8000008c:	00008e13          	mv	t3,ra
C:\Users\Michael\Documents\eclipse-workspace\POOMAv1_0\Debug/../crt0.S:57
	mv		x29, x1
80000090:	00008e93          	mv	t4,ra
C:\Users\Michael\Documents\eclipse-workspace\POOMAv1_0\Debug/../crt0.S:58
	mv		x30, x1
80000094:	00008f13          	mv	t5,ra
C:\Users\Michael\Documents\eclipse-workspace\POOMAv1_0\Debug/../crt0.S:59
	mv		x31, x1
80000098:	00008f93          	mv	t6,ra
C:\Users\Michael\Documents\eclipse-workspace\POOMAv1_0\Debug/../crt0.S:61

	la x26, _bss_start
8000009c:	00002d17          	auipc	s10,0x2
800000a0:	144d0d13          	addi	s10,s10,324 # 800021e0 <_bss_start>
C:\Users\Michael\Documents\eclipse-workspace\POOMAv1_0\Debug/../crt0.S:62
	la x27, _bss_end
800000a4:	00002d97          	auipc	s11,0x2
800000a8:	154d8d93          	addi	s11,s11,340 # 800021f8 <errno>
C:\Users\Michael\Documents\eclipse-workspace\POOMAv1_0\Debug/../crt0.S:63
	bge x26, x27, zero_loop_end
800000ac:	01bd5863          	bge	s10,s11,800000bc <zero_loop_end>

800000b0 <zero_loop>:
zero_loop():
C:\Users\Michael\Documents\eclipse-workspace\POOMAv1_0\Debug/../crt0.S:66

	zero_loop:
		sw x0, 0(x26)
800000b0:	000d2023          	sw	zero,0(s10)
C:\Users\Michael\Documents\eclipse-workspace\POOMAv1_0\Debug/../crt0.S:67
		addi x26, x26, 4
800000b4:	004d0d13          	addi	s10,s10,4
C:\Users\Michael\Documents\eclipse-workspace\POOMAv1_0\Debug/../crt0.S:68
		ble x26, x27, zero_loop
800000b8:	ffaddce3          	bge	s11,s10,800000b0 <zero_loop>

800000bc <zero_loop_end>:
zero_loop_end():
C:\Users\Michael\Documents\eclipse-workspace\POOMAv1_0\Debug/../crt0.S:71
	zero_loop_end:
	// added in the c code
	call main
800000bc:	2f0000ef          	jal	ra,800003ac <main>
C:\Users\Michael\Documents\eclipse-workspace\POOMAv1_0\Debug/../crt0.S:76
	//jal zero, main
.cfi_endproc
//---------------------------------------------------
1:
	j		1b
800000c0:	0000006f          	j	800000c0 <zero_loop_end+0x4>

800000c4 <trap_handler>:
trap_handler():
C:\Users\Michael\Documents\eclipse-workspace\POOMAv1_0\Debug/../crt0.S:80
//---------------------------------------------------
trap_handler:
	// csrr a0, mcause
	j exception_handler
800000c4:	2640006f          	j	80000328 <exception_handler>
C:\Users\Michael\Documents\eclipse-workspace\POOMAv1_0\Debug/../crt0.S:81
	j l_1_caeco_interrupt_handler
800000c8:	27c0006f          	j	80000344 <l_1_caeco_interrupt_handler>
C:\Users\Michael\Documents\eclipse-workspace\POOMAv1_0\Debug/../crt0.S:82
	mret
800000cc:	30200073          	mret

800000d0 <memset>:
memset():
800000d0:	00050313          	mv	t1,a0
800000d4:	00060a63          	beqz	a2,800000e8 <memset+0x18>
800000d8:	00b30023          	sb	a1,0(t1)
800000dc:	fff60613          	addi	a2,a2,-1
800000e0:	00130313          	addi	t1,t1,1
800000e4:	fe061ae3          	bnez	a2,800000d8 <memset+0x8>
800000e8:	00008067          	ret

Disassembly of section .text._close:

800000ec <_close>:
_close():
C:\Users\Michael\Documents\eclipse-workspace\POOMAv1_0\Debug/../airi5c_syscalls.c:26

void _exit(int i) {
	while(1);		// park loop
}

int _close(int file) {
800000ec:	fe010113          	addi	sp,sp,-32
800000f0:	00812e23          	sw	s0,28(sp)
800000f4:	02010413          	addi	s0,sp,32
800000f8:	fea42623          	sw	a0,-20(s0)
C:\Users\Michael\Documents\eclipse-workspace\POOMAv1_0\Debug/../airi5c_syscalls.c:27
	return(-1);		// the only file is stdout, which cannot be closed
800000fc:	fff00793          	li	a5,-1
C:\Users\Michael\Documents\eclipse-workspace\POOMAv1_0\Debug/../airi5c_syscalls.c:28
}
80000100:	00078513          	mv	a0,a5
80000104:	01c12403          	lw	s0,28(sp)
80000108:	02010113          	addi	sp,sp,32
8000010c:	00008067          	ret

Disassembly of section .text._fstat:

80000110 <_fstat>:
_fstat():
C:\Users\Michael\Documents\eclipse-workspace\POOMAv1_0\Debug/../airi5c_syscalls.c:41
int _fork() {
	errno = EAGAIN;
	return(-1);
}

int _fstat(int file, struct stat *st) {
80000110:	fe010113          	addi	sp,sp,-32
80000114:	00812e23          	sw	s0,28(sp)
80000118:	02010413          	addi	s0,sp,32
8000011c:	fea42623          	sw	a0,-20(s0)
80000120:	feb42423          	sw	a1,-24(s0)
C:\Users\Michael\Documents\eclipse-workspace\POOMAv1_0\Debug/../airi5c_syscalls.c:42
	st->st_mode = S_IFCHR;
80000124:	fe842783          	lw	a5,-24(s0)
80000128:	00002737          	lui	a4,0x2
8000012c:	00e7a223          	sw	a4,4(a5)
C:\Users\Michael\Documents\eclipse-workspace\POOMAv1_0\Debug/../airi5c_syscalls.c:43
	return 0;
80000130:	00000793          	li	a5,0
C:\Users\Michael\Documents\eclipse-workspace\POOMAv1_0\Debug/../airi5c_syscalls.c:44
}
80000134:	00078513          	mv	a0,a5
80000138:	01c12403          	lw	s0,28(sp)
8000013c:	02010113          	addi	sp,sp,32
80000140:	00008067          	ret

Disassembly of section .text._isatty:

80000144 <_isatty>:
_isatty():
C:\Users\Michael\Documents\eclipse-workspace\POOMAv1_0\Debug/../airi5c_syscalls.c:50

int _getpid(void) {
	return 1;
}

int _isatty(int file) {
80000144:	fe010113          	addi	sp,sp,-32
80000148:	00812e23          	sw	s0,28(sp)
8000014c:	02010413          	addi	s0,sp,32
80000150:	fea42623          	sw	a0,-20(s0)
C:\Users\Michael\Documents\eclipse-workspace\POOMAv1_0\Debug/../airi5c_syscalls.c:51
	return 1;
80000154:	00100793          	li	a5,1
C:\Users\Michael\Documents\eclipse-workspace\POOMAv1_0\Debug/../airi5c_syscalls.c:52
}
80000158:	00078513          	mv	a0,a5
8000015c:	01c12403          	lw	s0,28(sp)
80000160:	02010113          	addi	sp,sp,32
80000164:	00008067          	ret

Disassembly of section .text._lseek:

80000168 <_lseek>:
_lseek():
C:\Users\Michael\Documents\eclipse-workspace\POOMAv1_0\Debug/../airi5c_syscalls.c:64
int _link(char *old, char *new) {
	errno = EMLINK;
	return -1;
}

int _lseek(int file, int ptr, int dir) {
80000168:	fe010113          	addi	sp,sp,-32
8000016c:	00812e23          	sw	s0,28(sp)
80000170:	02010413          	addi	s0,sp,32
80000174:	fea42623          	sw	a0,-20(s0)
80000178:	feb42423          	sw	a1,-24(s0)
8000017c:	fec42223          	sw	a2,-28(s0)
C:\Users\Michael\Documents\eclipse-workspace\POOMAv1_0\Debug/../airi5c_syscalls.c:65
	return 0;
80000180:	00000793          	li	a5,0
C:\Users\Michael\Documents\eclipse-workspace\POOMAv1_0\Debug/../airi5c_syscalls.c:66
}
80000184:	00078513          	mv	a0,a5
80000188:	01c12403          	lw	s0,28(sp)
8000018c:	02010113          	addi	sp,sp,32
80000190:	00008067          	ret

Disassembly of section .text._read:

80000194 <_read>:
_read():
C:\Users\Michael\Documents\eclipse-workspace\POOMAv1_0\Debug/../airi5c_syscalls.c:72

int _open(const char *name, int flags, ...) {
	return -1;
}

int _read(int file, char *ptr, int len) {
80000194:	fe010113          	addi	sp,sp,-32
80000198:	00812e23          	sw	s0,28(sp)
8000019c:	02010413          	addi	s0,sp,32
800001a0:	fea42623          	sw	a0,-20(s0)
800001a4:	feb42423          	sw	a1,-24(s0)
800001a8:	fec42223          	sw	a2,-28(s0)
C:\Users\Michael\Documents\eclipse-workspace\POOMAv1_0\Debug/../airi5c_syscalls.c:73
	return 0;
800001ac:	00000793          	li	a5,0
C:\Users\Michael\Documents\eclipse-workspace\POOMAv1_0\Debug/../airi5c_syscalls.c:74
}
800001b0:	00078513          	mv	a0,a5
800001b4:	01c12403          	lw	s0,28(sp)
800001b8:	02010113          	addi	sp,sp,32
800001bc:	00008067          	ret

Disassembly of section .text._sbrk:

800001c0 <_sbrk>:
_sbrk():
C:\Users\Michael\Documents\eclipse-workspace\POOMAv1_0\Debug/../airi5c_syscalls.c:76

caddr_t _sbrk(int incr) {
800001c0:	fd010113          	addi	sp,sp,-48
800001c4:	02112623          	sw	ra,44(sp)
800001c8:	02812423          	sw	s0,40(sp)
800001cc:	03010413          	addi	s0,sp,48
800001d0:	fca42e23          	sw	a0,-36(s0)
C:\Users\Michael\Documents\eclipse-workspace\POOMAv1_0\Debug/../airi5c_syscalls.c:82
	extern int __end;
	static void *heap_end;
	void *prev_heap_end;

	register void* stack_ptr asm("sp");
	if(heap_end == NULL)
800001d4:	800027b7          	lui	a5,0x80002
800001d8:	1e07a783          	lw	a5,480(a5) # 800021e0 <_gpio_creg+0xc00021d4>
800001dc:	00079a63          	bnez	a5,800001f0 <_sbrk+0x30>
C:\Users\Michael\Documents\eclipse-workspace\POOMAv1_0\Debug/../airi5c_syscalls.c:83
		heap_end = (void*)&__end;
800001e0:	800027b7          	lui	a5,0x80002
800001e4:	80002737          	lui	a4,0x80002
800001e8:	1f870713          	addi	a4,a4,504 # 800021f8 <_gpio_creg+0xc00021ec>
800001ec:	1ee7a023          	sw	a4,480(a5) # 800021e0 <_gpio_creg+0xc00021d4>
C:\Users\Michael\Documents\eclipse-workspace\POOMAv1_0\Debug/../airi5c_syscalls.c:84
	prev_heap_end = heap_end;
800001f0:	800027b7          	lui	a5,0x80002
800001f4:	1e07a783          	lw	a5,480(a5) # 800021e0 <_gpio_creg+0xc00021d4>
800001f8:	fef42623          	sw	a5,-20(s0)
C:\Users\Michael\Documents\eclipse-workspace\POOMAv1_0\Debug/../airi5c_syscalls.c:85
	if((void*)(heap_end + incr) > stack_ptr) {
800001fc:	800027b7          	lui	a5,0x80002
80000200:	1e07a703          	lw	a4,480(a5) # 800021e0 <_gpio_creg+0xc00021d4>
80000204:	fdc42783          	lw	a5,-36(s0)
80000208:	00f707b3          	add	a5,a4,a5
8000020c:	00010713          	mv	a4,sp
80000210:	00f77e63          	bgeu	a4,a5,8000022c <_sbrk+0x6c>
C:\Users\Michael\Documents\eclipse-workspace\POOMAv1_0\Debug/../airi5c_syscalls.c:86
		write(1, "Heap and stack collision\n",25);
80000214:	01900613          	li	a2,25
80000218:	800027b7          	lui	a5,0x80002
8000021c:	0fc78593          	addi	a1,a5,252 # 800020fc <_gpio_creg+0xc00020f0>
80000220:	00100513          	li	a0,1
80000224:	708000ef          	jal	ra,8000092c <write>
C:\Users\Michael\Documents\eclipse-workspace\POOMAv1_0\Debug/../airi5c_syscalls.c:87 (discriminator 1)
		while(1);
80000228:	0000006f          	j	80000228 <_sbrk+0x68>
C:\Users\Michael\Documents\eclipse-workspace\POOMAv1_0\Debug/../airi5c_syscalls.c:89
	}
	heap_end += incr;
8000022c:	800027b7          	lui	a5,0x80002
80000230:	1e07a703          	lw	a4,480(a5) # 800021e0 <_gpio_creg+0xc00021d4>
80000234:	fdc42783          	lw	a5,-36(s0)
80000238:	00f70733          	add	a4,a4,a5
8000023c:	800027b7          	lui	a5,0x80002
80000240:	1ee7a023          	sw	a4,480(a5) # 800021e0 <_gpio_creg+0xc00021d4>
C:\Users\Michael\Documents\eclipse-workspace\POOMAv1_0\Debug/../airi5c_syscalls.c:90
	return (caddr_t) prev_heap_end;
80000244:	fec42783          	lw	a5,-20(s0)
C:\Users\Michael\Documents\eclipse-workspace\POOMAv1_0\Debug/../airi5c_syscalls.c:91
}
80000248:	00078513          	mv	a0,a5
8000024c:	02c12083          	lw	ra,44(sp)
80000250:	02812403          	lw	s0,40(sp)
80000254:	03010113          	addi	sp,sp,48
80000258:	00008067          	ret

Disassembly of section .text.outbyte:

8000025c <outbyte>:
outbyte():
C:\Users\Michael\Documents\eclipse-workspace\POOMAv1_0\Debug/../airi5c_syscalls.c:113
	errno = ECHILD;
	return -1;
}

void outbyte(char payload)
{
8000025c:	fd010113          	addi	sp,sp,-48
80000260:	02812623          	sw	s0,44(sp)
80000264:	03010413          	addi	s0,sp,48
80000268:	00050793          	mv	a5,a0
8000026c:	fcf40fa3          	sb	a5,-33(s0)
C:\Users\Michael\Documents\eclipse-workspace\POOMAv1_0\Debug/../airi5c_syscalls.c:116
	int i;
	volatile extern int _uart_dreg;
	_uart_dreg = 0x100 | payload;
80000270:	fdf40783          	lb	a5,-33(s0)
80000274:	1007e713          	ori	a4,a5,256
80000278:	c00007b7          	lui	a5,0xc0000
8000027c:	00e7a023          	sw	a4,0(a5) # c0000000 <_gpio_creg+0xfffffff4>
C:\Users\Michael\Documents\eclipse-workspace\POOMAv1_0\Debug/../airi5c_syscalls.c:117
	_uart_dreg = 0x000;
80000280:	c00007b7          	lui	a5,0xc0000
80000284:	0007a023          	sw	zero,0(a5) # c0000000 <_gpio_creg+0xfffffff4>
C:\Users\Michael\Documents\eclipse-workspace\POOMAv1_0\Debug/../airi5c_syscalls.c:118
	for(i = 0; i < 10000; i++);
80000288:	fe042623          	sw	zero,-20(s0)
8000028c:	0100006f          	j	8000029c <outbyte+0x40>
C:\Users\Michael\Documents\eclipse-workspace\POOMAv1_0\Debug/../airi5c_syscalls.c:118 (discriminator 3)
80000290:	fec42783          	lw	a5,-20(s0)
80000294:	00178793          	addi	a5,a5,1
80000298:	fef42623          	sw	a5,-20(s0)
C:\Users\Michael\Documents\eclipse-workspace\POOMAv1_0\Debug/../airi5c_syscalls.c:118 (discriminator 1)
8000029c:	fec42703          	lw	a4,-20(s0)
800002a0:	000027b7          	lui	a5,0x2
800002a4:	70f78793          	addi	a5,a5,1807 # 270f <_start-0x7fffd8f1>
800002a8:	fee7d4e3          	bge	a5,a4,80000290 <outbyte+0x34>
C:\Users\Michael\Documents\eclipse-workspace\POOMAv1_0\Debug/../airi5c_syscalls.c:119
}
800002ac:	00000013          	nop
800002b0:	02c12403          	lw	s0,44(sp)
800002b4:	03010113          	addi	sp,sp,48
800002b8:	00008067          	ret

Disassembly of section .text._write:

800002bc <_write>:
_write():
C:\Users\Michael\Documents\eclipse-workspace\POOMAv1_0\Debug/../airi5c_syscalls.c:121

int _write(int file, char *ptr, int len) {
800002bc:	fd010113          	addi	sp,sp,-48
800002c0:	02112623          	sw	ra,44(sp)
800002c4:	02812423          	sw	s0,40(sp)
800002c8:	03010413          	addi	s0,sp,48
800002cc:	fca42e23          	sw	a0,-36(s0)
800002d0:	fcb42c23          	sw	a1,-40(s0)
800002d4:	fcc42a23          	sw	a2,-44(s0)
C:\Users\Michael\Documents\eclipse-workspace\POOMAv1_0\Debug/../airi5c_syscalls.c:123
	int i;
	for(i = 0; i < len; i++)
800002d8:	fe042623          	sw	zero,-20(s0)
800002dc:	0280006f          	j	80000304 <_write+0x48>
C:\Users\Michael\Documents\eclipse-workspace\POOMAv1_0\Debug/../airi5c_syscalls.c:125 (discriminator 3)
	{
		outbyte(ptr[i]);
800002e0:	fec42783          	lw	a5,-20(s0)
800002e4:	fd842703          	lw	a4,-40(s0)
800002e8:	00f707b3          	add	a5,a4,a5
800002ec:	00078783          	lb	a5,0(a5)
800002f0:	00078513          	mv	a0,a5
800002f4:	f69ff0ef          	jal	ra,8000025c <outbyte>
C:\Users\Michael\Documents\eclipse-workspace\POOMAv1_0\Debug/../airi5c_syscalls.c:123 (discriminator 3)
	for(i = 0; i < len; i++)
800002f8:	fec42783          	lw	a5,-20(s0)
800002fc:	00178793          	addi	a5,a5,1
80000300:	fef42623          	sw	a5,-20(s0)
C:\Users\Michael\Documents\eclipse-workspace\POOMAv1_0\Debug/../airi5c_syscalls.c:123 (discriminator 1)
80000304:	fec42703          	lw	a4,-20(s0)
80000308:	fd442783          	lw	a5,-44(s0)
8000030c:	fcf74ae3          	blt	a4,a5,800002e0 <_write+0x24>
C:\Users\Michael\Documents\eclipse-workspace\POOMAv1_0\Debug/../airi5c_syscalls.c:127
	}
	return len;
80000310:	fd442783          	lw	a5,-44(s0)
C:\Users\Michael\Documents\eclipse-workspace\POOMAv1_0\Debug/../airi5c_syscalls.c:128
}
80000314:	00078513          	mv	a0,a5
80000318:	02c12083          	lw	ra,44(sp)
8000031c:	02812403          	lw	s0,40(sp)
80000320:	03010113          	addi	sp,sp,48
80000324:	00008067          	ret

Disassembly of section .text.exception_handler:

80000328 <exception_handler>:
exception_handler():
C:\Users\Michael\Documents\eclipse-workspace\POOMAv1_0\Debug/../main.c:23
int *storage = NULL;



void exception_handler(void) __attribute((interrupt));
void exception_handler(void){
80000328:	ff010113          	addi	sp,sp,-16
8000032c:	00812623          	sw	s0,12(sp)
80000330:	01010413          	addi	s0,sp,16
C:\Users\Michael\Documents\eclipse-workspace\POOMAv1_0\Debug/../main.c:25
	// do nothing
}
80000334:	00000013          	nop
80000338:	00c12403          	lw	s0,12(sp)
8000033c:	01010113          	addi	sp,sp,16
80000340:	30200073          	mret

Disassembly of section .text.l_1_caeco_interrupt_handler:

80000344 <l_1_caeco_interrupt_handler>:
l_1_caeco_interrupt_handler():
C:\Users\Michael\Documents\eclipse-workspace\POOMAv1_0\Debug/../main.c:28

void l_1_caeco_interrupt_handler(void) __attribute((interrupt));
void l_1_caeco_interrupt_handler(void){
80000344:	fe010113          	addi	sp,sp,-32
80000348:	00812e23          	sw	s0,28(sp)
8000034c:	00e12c23          	sw	a4,24(sp)
80000350:	00f12a23          	sw	a5,20(sp)
80000354:	02010413          	addi	s0,sp,32
C:\Users\Michael\Documents\eclipse-workspace\POOMAv1_0\Debug/../main.c:30
	// getting the caeco address
	int* pointer = (int *) 0xc00000c0;
80000358:	c00007b7          	lui	a5,0xc0000
8000035c:	0c078793          	addi	a5,a5,192 # c00000c0 <_gpio_creg+0xb4>
80000360:	fef42623          	sw	a5,-20(s0)
C:\Users\Michael\Documents\eclipse-workspace\POOMAv1_0\Debug/../main.c:32
	// read from the caeco address
	int value = *pointer;
80000364:	fec42783          	lw	a5,-20(s0)
80000368:	0007a783          	lw	a5,0(a5)
8000036c:	fef42423          	sw	a5,-24(s0)
C:\Users\Michael\Documents\eclipse-workspace\POOMAv1_0\Debug/../main.c:34
	// write the result to the first pointer
	*cur_res = value;
80000370:	800027b7          	lui	a5,0x80002
80000374:	1e47a783          	lw	a5,484(a5) # 800021e4 <_gpio_creg+0xc00021d8>
80000378:	fe842703          	lw	a4,-24(s0)
8000037c:	00e7a023          	sw	a4,0(a5)
C:\Users\Michael\Documents\eclipse-workspace\POOMAv1_0\Debug/../main.c:36
	// increment the address of the storage
	++cur_res;
80000380:	800027b7          	lui	a5,0x80002
80000384:	1e47a783          	lw	a5,484(a5) # 800021e4 <_gpio_creg+0xc00021d8>
80000388:	00478713          	addi	a4,a5,4
8000038c:	800027b7          	lui	a5,0x80002
80000390:	1ee7a223          	sw	a4,484(a5) # 800021e4 <_gpio_creg+0xc00021d8>
C:\Users\Michael\Documents\eclipse-workspace\POOMAv1_0\Debug/../main.c:37
}
80000394:	00000013          	nop
80000398:	01c12403          	lw	s0,28(sp)
8000039c:	01812703          	lw	a4,24(sp)
800003a0:	01412783          	lw	a5,20(sp)
800003a4:	02010113          	addi	sp,sp,32
800003a8:	30200073          	mret

Disassembly of section .text.main:

800003ac <main>:
main():
C:\Users\Michael\Documents\eclipse-workspace\POOMAv1_0\Debug/../main.c:40

int main (void)
{
800003ac:	ff010113          	addi	sp,sp,-16
800003b0:	00112623          	sw	ra,12(sp)
800003b4:	00812423          	sw	s0,8(sp)
800003b8:	01010413          	addi	s0,sp,16
C:\Users\Michael\Documents\eclipse-workspace\POOMAv1_0\Debug/../main.c:42
	// allocate storage
	storage = (int *) malloc(1000 * sizeof(int));
800003bc:	000017b7          	lui	a5,0x1
800003c0:	fa078513          	addi	a0,a5,-96 # fa0 <_start-0x7ffff060>
800003c4:	0b0000ef          	jal	ra,80000474 <malloc>
800003c8:	00050793          	mv	a5,a0
800003cc:	00078713          	mv	a4,a5
800003d0:	800027b7          	lui	a5,0x80002
800003d4:	1ee7a623          	sw	a4,492(a5) # 800021ec <_gpio_creg+0xc00021e0>
C:\Users\Michael\Documents\eclipse-workspace\POOMAv1_0\Debug/../main.c:44
	// check if the storage is available
	if(storage != NULL) {
800003d8:	800027b7          	lui	a5,0x80002
800003dc:	1ec7a783          	lw	a5,492(a5) # 800021ec <_gpio_creg+0xc00021e0>
800003e0:	00078a63          	beqz	a5,800003f4 <main+0x48>
C:\Users\Michael\Documents\eclipse-workspace\POOMAv1_0\Debug/../main.c:45
		printf("\n ok\n");
800003e4:	800027b7          	lui	a5,0x80002
800003e8:	11878513          	addi	a0,a5,280 # 80002118 <_gpio_creg+0xc000210c>
800003ec:	4e0000ef          	jal	ra,800008cc <puts>
800003f0:	0100006f          	j	80000400 <main+0x54>
C:\Users\Michael\Documents\eclipse-workspace\POOMAv1_0\Debug/../main.c:47
	}else {
		printf("\n fail\n");
800003f4:	800027b7          	lui	a5,0x80002
800003f8:	12078513          	addi	a0,a5,288 # 80002120 <_gpio_creg+0xc0002114>
800003fc:	4d0000ef          	jal	ra,800008cc <puts>
C:\Users\Michael\Documents\eclipse-workspace\POOMAv1_0\Debug/../main.c:50
	}
    // set pointers to start address
	cur_res = storage;
80000400:	800027b7          	lui	a5,0x80002
80000404:	1ec7a703          	lw	a4,492(a5) # 800021ec <_gpio_creg+0xc00021e0>
80000408:	800027b7          	lui	a5,0x80002
8000040c:	1ee7a223          	sw	a4,484(a5) # 800021e4 <_gpio_creg+0xc00021d8>
C:\Users\Michael\Documents\eclipse-workspace\POOMAv1_0\Debug/../main.c:51
	out_res = storage;
80000410:	800027b7          	lui	a5,0x80002
80000414:	1ec7a703          	lw	a4,492(a5) # 800021ec <_gpio_creg+0xc00021e0>
80000418:	800027b7          	lui	a5,0x80002
8000041c:	1ee7a423          	sw	a4,488(a5) # 800021e8 <_gpio_creg+0xc00021dc>
C:\Users\Michael\Documents\eclipse-workspace\POOMAv1_0\Debug/../main.c:52
	printf("\n run!\n");
80000420:	800027b7          	lui	a5,0x80002
80000424:	12878513          	addi	a0,a5,296 # 80002128 <_gpio_creg+0xc000211c>
80000428:	4a4000ef          	jal	ra,800008cc <puts>
C:\Users\Michael\Documents\eclipse-workspace\POOMAv1_0\Debug/../main.c:54
	while (1){
		if (out_res != cur_res){
8000042c:	800027b7          	lui	a5,0x80002
80000430:	1e87a703          	lw	a4,488(a5) # 800021e8 <_gpio_creg+0xc00021dc>
80000434:	800027b7          	lui	a5,0x80002
80000438:	1e47a783          	lw	a5,484(a5) # 800021e4 <_gpio_creg+0xc00021d8>
8000043c:	fef708e3          	beq	a4,a5,8000042c <main+0x80>
C:\Users\Michael\Documents\eclipse-workspace\POOMAv1_0\Debug/../main.c:55
			printf("\n result: %p\n", *out_res);
80000440:	800027b7          	lui	a5,0x80002
80000444:	1e87a783          	lw	a5,488(a5) # 800021e8 <_gpio_creg+0xc00021dc>
80000448:	0007a783          	lw	a5,0(a5)
8000044c:	00078593          	mv	a1,a5
80000450:	800027b7          	lui	a5,0x80002
80000454:	13078513          	addi	a0,a5,304 # 80002130 <_gpio_creg+0xc0002124>
80000458:	298000ef          	jal	ra,800006f0 <iprintf>
C:\Users\Michael\Documents\eclipse-workspace\POOMAv1_0\Debug/../main.c:56
			++out_res;
8000045c:	800027b7          	lui	a5,0x80002
80000460:	1e87a783          	lw	a5,488(a5) # 800021e8 <_gpio_creg+0xc00021dc>
80000464:	00478713          	addi	a4,a5,4
80000468:	800027b7          	lui	a5,0x80002
8000046c:	1ee7a423          	sw	a4,488(a5) # 800021e8 <_gpio_creg+0xc00021dc>
C:\Users\Michael\Documents\eclipse-workspace\POOMAv1_0\Debug/../main.c:54
		if (out_res != cur_res){
80000470:	fbdff06f          	j	8000042c <main+0x80>

Disassembly of section .text.malloc:

80000474 <malloc>:
malloc():
80000474:	00002797          	auipc	a5,0x2
80000478:	c8478793          	addi	a5,a5,-892 # 800020f8 <_impure_ptr>
8000047c:	00050593          	mv	a1,a0
80000480:	0007a503          	lw	a0,0(a5)
80000484:	1100006f          	j	80000594 <_malloc_r>

Disassembly of section .text._free_r:

80000488 <_free_r>:
_free_r():
80000488:	10058463          	beqz	a1,80000590 <_free_r+0x108>
8000048c:	ffc5a783          	lw	a5,-4(a1)
80000490:	ff010113          	addi	sp,sp,-16
80000494:	00812423          	sw	s0,8(sp)
80000498:	00112623          	sw	ra,12(sp)
8000049c:	00912223          	sw	s1,4(sp)
800004a0:	ffc58413          	addi	s0,a1,-4
800004a4:	0007d463          	bgez	a5,800004ac <_free_r+0x24>
800004a8:	00f40433          	add	s0,s0,a5
800004ac:	00050493          	mv	s1,a0
800004b0:	705000ef          	jal	ra,800013b4 <__malloc_lock>
800004b4:	00002797          	auipc	a5,0x2
800004b8:	d3c78793          	addi	a5,a5,-708 # 800021f0 <__malloc_free_list>
800004bc:	0007a783          	lw	a5,0(a5)
800004c0:	02079463          	bnez	a5,800004e8 <_free_r+0x60>
800004c4:	00042223          	sw	zero,4(s0)
800004c8:	00002797          	auipc	a5,0x2
800004cc:	d287a423          	sw	s0,-728(a5) # 800021f0 <__malloc_free_list>
800004d0:	00812403          	lw	s0,8(sp)
800004d4:	00c12083          	lw	ra,12(sp)
800004d8:	00048513          	mv	a0,s1
800004dc:	00412483          	lw	s1,4(sp)
800004e0:	01010113          	addi	sp,sp,16
800004e4:	6d50006f          	j	800013b8 <__malloc_unlock>
800004e8:	02f47663          	bgeu	s0,a5,80000514 <_free_r+0x8c>
800004ec:	00042683          	lw	a3,0(s0)
800004f0:	00d40733          	add	a4,s0,a3
800004f4:	00e79a63          	bne	a5,a4,80000508 <_free_r+0x80>
800004f8:	0007a703          	lw	a4,0(a5)
800004fc:	0047a783          	lw	a5,4(a5)
80000500:	00d70733          	add	a4,a4,a3
80000504:	00e42023          	sw	a4,0(s0)
80000508:	00f42223          	sw	a5,4(s0)
8000050c:	fbdff06f          	j	800004c8 <_free_r+0x40>
80000510:	00070793          	mv	a5,a4
80000514:	0047a703          	lw	a4,4(a5)
80000518:	00070463          	beqz	a4,80000520 <_free_r+0x98>
8000051c:	fee47ae3          	bgeu	s0,a4,80000510 <_free_r+0x88>
80000520:	0007a683          	lw	a3,0(a5)
80000524:	00d78633          	add	a2,a5,a3
80000528:	02861863          	bne	a2,s0,80000558 <_free_r+0xd0>
8000052c:	00042603          	lw	a2,0(s0)
80000530:	00c686b3          	add	a3,a3,a2
80000534:	00d7a023          	sw	a3,0(a5)
80000538:	00d78633          	add	a2,a5,a3
8000053c:	f8c71ae3          	bne	a4,a2,800004d0 <_free_r+0x48>
80000540:	00072603          	lw	a2,0(a4)
80000544:	00472703          	lw	a4,4(a4)
80000548:	00d606b3          	add	a3,a2,a3
8000054c:	00d7a023          	sw	a3,0(a5)
80000550:	00e7a223          	sw	a4,4(a5)
80000554:	f7dff06f          	j	800004d0 <_free_r+0x48>
80000558:	00c47863          	bgeu	s0,a2,80000568 <_free_r+0xe0>
8000055c:	00c00793          	li	a5,12
80000560:	00f4a023          	sw	a5,0(s1)
80000564:	f6dff06f          	j	800004d0 <_free_r+0x48>
80000568:	00042603          	lw	a2,0(s0)
8000056c:	00c406b3          	add	a3,s0,a2
80000570:	00d71a63          	bne	a4,a3,80000584 <_free_r+0xfc>
80000574:	00072683          	lw	a3,0(a4)
80000578:	00472703          	lw	a4,4(a4)
8000057c:	00c686b3          	add	a3,a3,a2
80000580:	00d42023          	sw	a3,0(s0)
80000584:	00e42223          	sw	a4,4(s0)
80000588:	0087a223          	sw	s0,4(a5)
8000058c:	f45ff06f          	j	800004d0 <_free_r+0x48>
80000590:	00008067          	ret

Disassembly of section .text._malloc_r:

80000594 <_malloc_r>:
_malloc_r():
80000594:	fe010113          	addi	sp,sp,-32
80000598:	00912a23          	sw	s1,20(sp)
8000059c:	00358493          	addi	s1,a1,3
800005a0:	ffc4f493          	andi	s1,s1,-4
800005a4:	00112e23          	sw	ra,28(sp)
800005a8:	00812c23          	sw	s0,24(sp)
800005ac:	01212823          	sw	s2,16(sp)
800005b0:	01312623          	sw	s3,12(sp)
800005b4:	00848493          	addi	s1,s1,8
800005b8:	00c00793          	li	a5,12
800005bc:	06f4fa63          	bgeu	s1,a5,80000630 <_malloc_r+0x9c>
800005c0:	00c00493          	li	s1,12
800005c4:	06b4e863          	bltu	s1,a1,80000634 <_malloc_r+0xa0>
800005c8:	00050913          	mv	s2,a0
800005cc:	5e9000ef          	jal	ra,800013b4 <__malloc_lock>
800005d0:	00002797          	auipc	a5,0x2
800005d4:	c2078793          	addi	a5,a5,-992 # 800021f0 <__malloc_free_list>
800005d8:	0007a703          	lw	a4,0(a5)
800005dc:	00070413          	mv	s0,a4
800005e0:	06041e63          	bnez	s0,8000065c <_malloc_r+0xc8>
800005e4:	00002797          	auipc	a5,0x2
800005e8:	c1078793          	addi	a5,a5,-1008 # 800021f4 <__malloc_sbrk_start>
800005ec:	0007a783          	lw	a5,0(a5)
800005f0:	00079c63          	bnez	a5,80000608 <_malloc_r+0x74>
800005f4:	00000593          	li	a1,0
800005f8:	00090513          	mv	a0,s2
800005fc:	2e4000ef          	jal	ra,800008e0 <_sbrk_r>
80000600:	00002797          	auipc	a5,0x2
80000604:	bea7aa23          	sw	a0,-1036(a5) # 800021f4 <__malloc_sbrk_start>
80000608:	00048593          	mv	a1,s1
8000060c:	00090513          	mv	a0,s2
80000610:	2d0000ef          	jal	ra,800008e0 <_sbrk_r>
80000614:	fff00993          	li	s3,-1
80000618:	0b351c63          	bne	a0,s3,800006d0 <_malloc_r+0x13c>
8000061c:	00c00793          	li	a5,12
80000620:	00f92023          	sw	a5,0(s2)
80000624:	00090513          	mv	a0,s2
80000628:	591000ef          	jal	ra,800013b8 <__malloc_unlock>
8000062c:	0100006f          	j	8000063c <_malloc_r+0xa8>
80000630:	f804dae3          	bgez	s1,800005c4 <_malloc_r+0x30>
80000634:	00c00793          	li	a5,12
80000638:	00f52023          	sw	a5,0(a0)
8000063c:	00000513          	li	a0,0
80000640:	01c12083          	lw	ra,28(sp)
80000644:	01812403          	lw	s0,24(sp)
80000648:	01412483          	lw	s1,20(sp)
8000064c:	01012903          	lw	s2,16(sp)
80000650:	00c12983          	lw	s3,12(sp)
80000654:	02010113          	addi	sp,sp,32
80000658:	00008067          	ret
8000065c:	00042783          	lw	a5,0(s0)
80000660:	409787b3          	sub	a5,a5,s1
80000664:	0607c063          	bltz	a5,800006c4 <_malloc_r+0x130>
80000668:	00b00693          	li	a3,11
8000066c:	00f6fa63          	bgeu	a3,a5,80000680 <_malloc_r+0xec>
80000670:	00f42023          	sw	a5,0(s0)
80000674:	00f40433          	add	s0,s0,a5
80000678:	00942023          	sw	s1,0(s0)
8000067c:	0140006f          	j	80000690 <_malloc_r+0xfc>
80000680:	00442783          	lw	a5,4(s0)
80000684:	02871c63          	bne	a4,s0,800006bc <_malloc_r+0x128>
80000688:	00002717          	auipc	a4,0x2
8000068c:	b6f72423          	sw	a5,-1176(a4) # 800021f0 <__malloc_free_list>
80000690:	00090513          	mv	a0,s2
80000694:	525000ef          	jal	ra,800013b8 <__malloc_unlock>
80000698:	00b40513          	addi	a0,s0,11
8000069c:	00440793          	addi	a5,s0,4
800006a0:	ff857513          	andi	a0,a0,-8
800006a4:	40f50733          	sub	a4,a0,a5
800006a8:	f8070ce3          	beqz	a4,80000640 <_malloc_r+0xac>
800006ac:	00e40433          	add	s0,s0,a4
800006b0:	40a787b3          	sub	a5,a5,a0
800006b4:	00f42023          	sw	a5,0(s0)
800006b8:	f89ff06f          	j	80000640 <_malloc_r+0xac>
800006bc:	00f72223          	sw	a5,4(a4)
800006c0:	fd1ff06f          	j	80000690 <_malloc_r+0xfc>
800006c4:	00040713          	mv	a4,s0
800006c8:	00442403          	lw	s0,4(s0)
800006cc:	f15ff06f          	j	800005e0 <_malloc_r+0x4c>
800006d0:	00350413          	addi	s0,a0,3
800006d4:	ffc47413          	andi	s0,s0,-4
800006d8:	fa8500e3          	beq	a0,s0,80000678 <_malloc_r+0xe4>
800006dc:	40a405b3          	sub	a1,s0,a0
800006e0:	00090513          	mv	a0,s2
800006e4:	1fc000ef          	jal	ra,800008e0 <_sbrk_r>
800006e8:	f93518e3          	bne	a0,s3,80000678 <_malloc_r+0xe4>
800006ec:	f31ff06f          	j	8000061c <_malloc_r+0x88>

Disassembly of section .text.printf:

800006f0 <iprintf>:
printf():
800006f0:	fc010113          	addi	sp,sp,-64
800006f4:	02f12a23          	sw	a5,52(sp)
800006f8:	02b12223          	sw	a1,36(sp)
800006fc:	02c12423          	sw	a2,40(sp)
80000700:	02d12623          	sw	a3,44(sp)
80000704:	02e12823          	sw	a4,48(sp)
80000708:	03012c23          	sw	a6,56(sp)
8000070c:	03112e23          	sw	a7,60(sp)
80000710:	00002797          	auipc	a5,0x2
80000714:	9e878793          	addi	a5,a5,-1560 # 800020f8 <_impure_ptr>
80000718:	00812c23          	sw	s0,24(sp)
8000071c:	0007a403          	lw	s0,0(a5)
80000720:	00912a23          	sw	s1,20(sp)
80000724:	00112e23          	sw	ra,28(sp)
80000728:	00050493          	mv	s1,a0
8000072c:	00040a63          	beqz	s0,80000740 <iprintf+0x50>
80000730:	01842783          	lw	a5,24(s0)
80000734:	00079663          	bnez	a5,80000740 <iprintf+0x50>
80000738:	00040513          	mv	a0,s0
8000073c:	0a5000ef          	jal	ra,80000fe0 <__sinit>
80000740:	00842583          	lw	a1,8(s0)
80000744:	02410693          	addi	a3,sp,36
80000748:	00048613          	mv	a2,s1
8000074c:	00040513          	mv	a0,s0
80000750:	00d12623          	sw	a3,12(sp)
80000754:	519000ef          	jal	ra,8000146c <_vfiprintf_r>
80000758:	01c12083          	lw	ra,28(sp)
8000075c:	01812403          	lw	s0,24(sp)
80000760:	01412483          	lw	s1,20(sp)
80000764:	04010113          	addi	sp,sp,64
80000768:	00008067          	ret

Disassembly of section .text._puts_r:

8000076c <_puts_r>:
_puts_r():
8000076c:	fe010113          	addi	sp,sp,-32
80000770:	00912a23          	sw	s1,20(sp)
80000774:	01212823          	sw	s2,16(sp)
80000778:	00112e23          	sw	ra,28(sp)
8000077c:	00812c23          	sw	s0,24(sp)
80000780:	01312623          	sw	s3,12(sp)
80000784:	01412423          	sw	s4,8(sp)
80000788:	00050493          	mv	s1,a0
8000078c:	00058913          	mv	s2,a1
80000790:	00050863          	beqz	a0,800007a0 <_puts_r+0x34>
80000794:	01852783          	lw	a5,24(a0)
80000798:	00079463          	bnez	a5,800007a0 <_puts_r+0x34>
8000079c:	045000ef          	jal	ra,80000fe0 <__sinit>
800007a0:	0184a783          	lw	a5,24(s1)
800007a4:	0084a403          	lw	s0,8(s1)
800007a8:	00079663          	bnez	a5,800007b4 <_puts_r+0x48>
800007ac:	00048513          	mv	a0,s1
800007b0:	031000ef          	jal	ra,80000fe0 <__sinit>
800007b4:	00002797          	auipc	a5,0x2
800007b8:	9ac78793          	addi	a5,a5,-1620 # 80002160 <__sf_fake_stdin>
800007bc:	04f41e63          	bne	s0,a5,80000818 <_puts_r+0xac>
800007c0:	0044a403          	lw	s0,4(s1)
800007c4:	00c45783          	lhu	a5,12(s0)
800007c8:	0087f793          	andi	a5,a5,8
800007cc:	06078a63          	beqz	a5,80000840 <_puts_r+0xd4>
800007d0:	01042783          	lw	a5,16(s0)
800007d4:	06078663          	beqz	a5,80000840 <_puts_r+0xd4>
800007d8:	fff00993          	li	s3,-1
800007dc:	00a00a13          	li	s4,10
800007e0:	00842783          	lw	a5,8(s0)
800007e4:	00094583          	lbu	a1,0(s2)
800007e8:	fff78793          	addi	a5,a5,-1
800007ec:	08059463          	bnez	a1,80000874 <_puts_r+0x108>
800007f0:	00f42423          	sw	a5,8(s0)
800007f4:	0c07d063          	bgez	a5,800008b4 <_puts_r+0x148>
800007f8:	00040613          	mv	a2,s0
800007fc:	00a00593          	li	a1,10
80000800:	00048513          	mv	a0,s1
80000804:	144000ef          	jal	ra,80000948 <__swbuf_r>
80000808:	fff00793          	li	a5,-1
8000080c:	04f50263          	beq	a0,a5,80000850 <_puts_r+0xe4>
80000810:	00a00513          	li	a0,10
80000814:	0400006f          	j	80000854 <_puts_r+0xe8>
80000818:	00002797          	auipc	a5,0x2
8000081c:	96878793          	addi	a5,a5,-1688 # 80002180 <__sf_fake_stdout>
80000820:	00f41663          	bne	s0,a5,8000082c <_puts_r+0xc0>
80000824:	0084a403          	lw	s0,8(s1)
80000828:	f9dff06f          	j	800007c4 <_puts_r+0x58>
8000082c:	00002797          	auipc	a5,0x2
80000830:	91478793          	addi	a5,a5,-1772 # 80002140 <__sf_fake_stderr>
80000834:	f8f418e3          	bne	s0,a5,800007c4 <_puts_r+0x58>
80000838:	00c4a403          	lw	s0,12(s1)
8000083c:	f89ff06f          	j	800007c4 <_puts_r+0x58>
80000840:	00040593          	mv	a1,s0
80000844:	00048513          	mv	a0,s1
80000848:	28c000ef          	jal	ra,80000ad4 <__swsetup_r>
8000084c:	f80506e3          	beqz	a0,800007d8 <_puts_r+0x6c>
80000850:	fff00513          	li	a0,-1
80000854:	01c12083          	lw	ra,28(sp)
80000858:	01812403          	lw	s0,24(sp)
8000085c:	01412483          	lw	s1,20(sp)
80000860:	01012903          	lw	s2,16(sp)
80000864:	00c12983          	lw	s3,12(sp)
80000868:	00812a03          	lw	s4,8(sp)
8000086c:	02010113          	addi	sp,sp,32
80000870:	00008067          	ret
80000874:	00f42423          	sw	a5,8(s0)
80000878:	00190913          	addi	s2,s2,1
8000087c:	0007d863          	bgez	a5,8000088c <_puts_r+0x120>
80000880:	01842703          	lw	a4,24(s0)
80000884:	00e7ce63          	blt	a5,a4,800008a0 <_puts_r+0x134>
80000888:	01458c63          	beq	a1,s4,800008a0 <_puts_r+0x134>
8000088c:	00042783          	lw	a5,0(s0)
80000890:	00178713          	addi	a4,a5,1
80000894:	00e42023          	sw	a4,0(s0)
80000898:	00b78023          	sb	a1,0(a5)
8000089c:	f45ff06f          	j	800007e0 <_puts_r+0x74>
800008a0:	00040613          	mv	a2,s0
800008a4:	00048513          	mv	a0,s1
800008a8:	0a0000ef          	jal	ra,80000948 <__swbuf_r>
800008ac:	f3351ae3          	bne	a0,s3,800007e0 <_puts_r+0x74>
800008b0:	fa1ff06f          	j	80000850 <_puts_r+0xe4>
800008b4:	00042783          	lw	a5,0(s0)
800008b8:	00178713          	addi	a4,a5,1
800008bc:	00e42023          	sw	a4,0(s0)
800008c0:	00a00713          	li	a4,10
800008c4:	00e78023          	sb	a4,0(a5)
800008c8:	f49ff06f          	j	80000810 <_puts_r+0xa4>

Disassembly of section .text.puts:

800008cc <puts>:
puts():
800008cc:	00002797          	auipc	a5,0x2
800008d0:	82c78793          	addi	a5,a5,-2004 # 800020f8 <_impure_ptr>
800008d4:	00050593          	mv	a1,a0
800008d8:	0007a503          	lw	a0,0(a5)
800008dc:	e91ff06f          	j	8000076c <_puts_r>

Disassembly of section .text._sbrk_r:

800008e0 <_sbrk_r>:
_sbrk_r():
800008e0:	ff010113          	addi	sp,sp,-16
800008e4:	00812423          	sw	s0,8(sp)
800008e8:	00050413          	mv	s0,a0
800008ec:	00058513          	mv	a0,a1
800008f0:	00002797          	auipc	a5,0x2
800008f4:	9007a423          	sw	zero,-1784(a5) # 800021f8 <errno>
800008f8:	00112623          	sw	ra,12(sp)
800008fc:	8c5ff0ef          	jal	ra,800001c0 <_sbrk>
80000900:	fff00793          	li	a5,-1
80000904:	00f51c63          	bne	a0,a5,8000091c <_sbrk_r+0x3c>
80000908:	00002797          	auipc	a5,0x2
8000090c:	8f078793          	addi	a5,a5,-1808 # 800021f8 <errno>
80000910:	0007a783          	lw	a5,0(a5)
80000914:	00078463          	beqz	a5,8000091c <_sbrk_r+0x3c>
80000918:	00f42023          	sw	a5,0(s0)
8000091c:	00c12083          	lw	ra,12(sp)
80000920:	00812403          	lw	s0,8(sp)
80000924:	01010113          	addi	sp,sp,16
80000928:	00008067          	ret

Disassembly of section .text.write:

8000092c <write>:
write():
8000092c:	00001797          	auipc	a5,0x1
80000930:	7cc78793          	addi	a5,a5,1996 # 800020f8 <_impure_ptr>
80000934:	00060693          	mv	a3,a2
80000938:	00058613          	mv	a2,a1
8000093c:	00050593          	mv	a1,a0
80000940:	0007a503          	lw	a0,0(a5)
80000944:	13c0006f          	j	80000a80 <_write_r>

Disassembly of section .text.__swbuf_r:

80000948 <__swbuf_r>:
__swbuf_r():
80000948:	fe010113          	addi	sp,sp,-32
8000094c:	00812c23          	sw	s0,24(sp)
80000950:	00912a23          	sw	s1,20(sp)
80000954:	01212823          	sw	s2,16(sp)
80000958:	00112e23          	sw	ra,28(sp)
8000095c:	01312623          	sw	s3,12(sp)
80000960:	00050493          	mv	s1,a0
80000964:	00058913          	mv	s2,a1
80000968:	00060413          	mv	s0,a2
8000096c:	00050863          	beqz	a0,8000097c <__swbuf_r+0x34>
80000970:	01852783          	lw	a5,24(a0)
80000974:	00079463          	bnez	a5,8000097c <__swbuf_r+0x34>
80000978:	668000ef          	jal	ra,80000fe0 <__sinit>
8000097c:	00001797          	auipc	a5,0x1
80000980:	7e478793          	addi	a5,a5,2020 # 80002160 <__sf_fake_stdin>
80000984:	0af41e63          	bne	s0,a5,80000a40 <__swbuf_r+0xf8>
80000988:	0044a403          	lw	s0,4(s1)
8000098c:	01842783          	lw	a5,24(s0)
80000990:	00f42423          	sw	a5,8(s0)
80000994:	00c45783          	lhu	a5,12(s0)
80000998:	0087f793          	andi	a5,a5,8
8000099c:	0c078663          	beqz	a5,80000a68 <__swbuf_r+0x120>
800009a0:	01042783          	lw	a5,16(s0)
800009a4:	0c078263          	beqz	a5,80000a68 <__swbuf_r+0x120>
800009a8:	01042783          	lw	a5,16(s0)
800009ac:	00042503          	lw	a0,0(s0)
800009b0:	0ff97993          	andi	s3,s2,255
800009b4:	0ff97913          	andi	s2,s2,255
800009b8:	40f50533          	sub	a0,a0,a5
800009bc:	01442783          	lw	a5,20(s0)
800009c0:	00f54a63          	blt	a0,a5,800009d4 <__swbuf_r+0x8c>
800009c4:	00040593          	mv	a1,s0
800009c8:	00048513          	mv	a0,s1
800009cc:	474000ef          	jal	ra,80000e40 <_fflush_r>
800009d0:	0a051463          	bnez	a0,80000a78 <__swbuf_r+0x130>
800009d4:	00842783          	lw	a5,8(s0)
800009d8:	00150513          	addi	a0,a0,1
800009dc:	fff78793          	addi	a5,a5,-1
800009e0:	00f42423          	sw	a5,8(s0)
800009e4:	00042783          	lw	a5,0(s0)
800009e8:	00178713          	addi	a4,a5,1
800009ec:	00e42023          	sw	a4,0(s0)
800009f0:	01378023          	sb	s3,0(a5)
800009f4:	01442783          	lw	a5,20(s0)
800009f8:	00a78c63          	beq	a5,a0,80000a10 <__swbuf_r+0xc8>
800009fc:	00c45783          	lhu	a5,12(s0)
80000a00:	0017f793          	andi	a5,a5,1
80000a04:	00078e63          	beqz	a5,80000a20 <__swbuf_r+0xd8>
80000a08:	00a00793          	li	a5,10
80000a0c:	00f91a63          	bne	s2,a5,80000a20 <__swbuf_r+0xd8>
80000a10:	00040593          	mv	a1,s0
80000a14:	00048513          	mv	a0,s1
80000a18:	428000ef          	jal	ra,80000e40 <_fflush_r>
80000a1c:	04051e63          	bnez	a0,80000a78 <__swbuf_r+0x130>
80000a20:	01c12083          	lw	ra,28(sp)
80000a24:	01812403          	lw	s0,24(sp)
80000a28:	00090513          	mv	a0,s2
80000a2c:	01412483          	lw	s1,20(sp)
80000a30:	01012903          	lw	s2,16(sp)
80000a34:	00c12983          	lw	s3,12(sp)
80000a38:	02010113          	addi	sp,sp,32
80000a3c:	00008067          	ret
80000a40:	00001797          	auipc	a5,0x1
80000a44:	74078793          	addi	a5,a5,1856 # 80002180 <__sf_fake_stdout>
80000a48:	00f41663          	bne	s0,a5,80000a54 <__swbuf_r+0x10c>
80000a4c:	0084a403          	lw	s0,8(s1)
80000a50:	f3dff06f          	j	8000098c <__swbuf_r+0x44>
80000a54:	00001797          	auipc	a5,0x1
80000a58:	6ec78793          	addi	a5,a5,1772 # 80002140 <__sf_fake_stderr>
80000a5c:	f2f418e3          	bne	s0,a5,8000098c <__swbuf_r+0x44>
80000a60:	00c4a403          	lw	s0,12(s1)
80000a64:	f29ff06f          	j	8000098c <__swbuf_r+0x44>
80000a68:	00040593          	mv	a1,s0
80000a6c:	00048513          	mv	a0,s1
80000a70:	064000ef          	jal	ra,80000ad4 <__swsetup_r>
80000a74:	f2050ae3          	beqz	a0,800009a8 <__swbuf_r+0x60>
80000a78:	fff00913          	li	s2,-1
80000a7c:	fa5ff06f          	j	80000a20 <__swbuf_r+0xd8>

Disassembly of section .text._write_r:

80000a80 <_write_r>:
_write_r():
80000a80:	ff010113          	addi	sp,sp,-16
80000a84:	00812423          	sw	s0,8(sp)
80000a88:	00050413          	mv	s0,a0
80000a8c:	00058513          	mv	a0,a1
80000a90:	00060593          	mv	a1,a2
80000a94:	00068613          	mv	a2,a3
80000a98:	00001797          	auipc	a5,0x1
80000a9c:	7607a023          	sw	zero,1888(a5) # 800021f8 <errno>
80000aa0:	00112623          	sw	ra,12(sp)
80000aa4:	819ff0ef          	jal	ra,800002bc <_write>
80000aa8:	fff00793          	li	a5,-1
80000aac:	00f51c63          	bne	a0,a5,80000ac4 <_write_r+0x44>
80000ab0:	00001797          	auipc	a5,0x1
80000ab4:	74878793          	addi	a5,a5,1864 # 800021f8 <errno>
80000ab8:	0007a783          	lw	a5,0(a5)
80000abc:	00078463          	beqz	a5,80000ac4 <_write_r+0x44>
80000ac0:	00f42023          	sw	a5,0(s0)
80000ac4:	00c12083          	lw	ra,12(sp)
80000ac8:	00812403          	lw	s0,8(sp)
80000acc:	01010113          	addi	sp,sp,16
80000ad0:	00008067          	ret

Disassembly of section .text.__swsetup_r:

80000ad4 <__swsetup_r>:
__swsetup_r():
80000ad4:	ff010113          	addi	sp,sp,-16
80000ad8:	00001797          	auipc	a5,0x1
80000adc:	62078793          	addi	a5,a5,1568 # 800020f8 <_impure_ptr>
80000ae0:	00912223          	sw	s1,4(sp)
80000ae4:	0007a483          	lw	s1,0(a5)
80000ae8:	00812423          	sw	s0,8(sp)
80000aec:	01212023          	sw	s2,0(sp)
80000af0:	00112623          	sw	ra,12(sp)
80000af4:	00050913          	mv	s2,a0
80000af8:	00058413          	mv	s0,a1
80000afc:	00048a63          	beqz	s1,80000b10 <__swsetup_r+0x3c>
80000b00:	0184a783          	lw	a5,24(s1)
80000b04:	00079663          	bnez	a5,80000b10 <__swsetup_r+0x3c>
80000b08:	00048513          	mv	a0,s1
80000b0c:	4d4000ef          	jal	ra,80000fe0 <__sinit>
80000b10:	00001797          	auipc	a5,0x1
80000b14:	65078793          	addi	a5,a5,1616 # 80002160 <__sf_fake_stdin>
80000b18:	04f41863          	bne	s0,a5,80000b68 <__swsetup_r+0x94>
80000b1c:	0044a403          	lw	s0,4(s1)
80000b20:	00c41703          	lh	a4,12(s0)
80000b24:	01071793          	slli	a5,a4,0x10
80000b28:	0107d793          	srli	a5,a5,0x10
80000b2c:	0087f693          	andi	a3,a5,8
80000b30:	0a069463          	bnez	a3,80000bd8 <__swsetup_r+0x104>
80000b34:	0107f693          	andi	a3,a5,16
80000b38:	04069c63          	bnez	a3,80000b90 <__swsetup_r+0xbc>
80000b3c:	00900793          	li	a5,9
80000b40:	00f92023          	sw	a5,0(s2)
80000b44:	04076713          	ori	a4,a4,64
80000b48:	00e41623          	sh	a4,12(s0)
80000b4c:	fff00513          	li	a0,-1
80000b50:	00c12083          	lw	ra,12(sp)
80000b54:	00812403          	lw	s0,8(sp)
80000b58:	00412483          	lw	s1,4(sp)
80000b5c:	00012903          	lw	s2,0(sp)
80000b60:	01010113          	addi	sp,sp,16
80000b64:	00008067          	ret
80000b68:	00001797          	auipc	a5,0x1
80000b6c:	61878793          	addi	a5,a5,1560 # 80002180 <__sf_fake_stdout>
80000b70:	00f41663          	bne	s0,a5,80000b7c <__swsetup_r+0xa8>
80000b74:	0084a403          	lw	s0,8(s1)
80000b78:	fa9ff06f          	j	80000b20 <__swsetup_r+0x4c>
80000b7c:	00001797          	auipc	a5,0x1
80000b80:	5c478793          	addi	a5,a5,1476 # 80002140 <__sf_fake_stderr>
80000b84:	f8f41ee3          	bne	s0,a5,80000b20 <__swsetup_r+0x4c>
80000b88:	00c4a403          	lw	s0,12(s1)
80000b8c:	f95ff06f          	j	80000b20 <__swsetup_r+0x4c>
80000b90:	0047f793          	andi	a5,a5,4
80000b94:	02078c63          	beqz	a5,80000bcc <__swsetup_r+0xf8>
80000b98:	03442583          	lw	a1,52(s0)
80000b9c:	00058c63          	beqz	a1,80000bb4 <__swsetup_r+0xe0>
80000ba0:	04440793          	addi	a5,s0,68
80000ba4:	00f58663          	beq	a1,a5,80000bb0 <__swsetup_r+0xdc>
80000ba8:	00090513          	mv	a0,s2
80000bac:	8ddff0ef          	jal	ra,80000488 <_free_r>
80000bb0:	02042a23          	sw	zero,52(s0)
80000bb4:	00c45783          	lhu	a5,12(s0)
80000bb8:	00042223          	sw	zero,4(s0)
80000bbc:	fdb7f793          	andi	a5,a5,-37
80000bc0:	00f41623          	sh	a5,12(s0)
80000bc4:	01042783          	lw	a5,16(s0)
80000bc8:	00f42023          	sw	a5,0(s0)
80000bcc:	00c45783          	lhu	a5,12(s0)
80000bd0:	0087e793          	ori	a5,a5,8
80000bd4:	00f41623          	sh	a5,12(s0)
80000bd8:	01042783          	lw	a5,16(s0)
80000bdc:	02079063          	bnez	a5,80000bfc <__swsetup_r+0x128>
80000be0:	00c45783          	lhu	a5,12(s0)
80000be4:	20000713          	li	a4,512
80000be8:	2807f793          	andi	a5,a5,640
80000bec:	00e78863          	beq	a5,a4,80000bfc <__swsetup_r+0x128>
80000bf0:	00040593          	mv	a1,s0
80000bf4:	00090513          	mv	a0,s2
80000bf8:	6cc000ef          	jal	ra,800012c4 <__smakebuf_r>
80000bfc:	00c45783          	lhu	a5,12(s0)
80000c00:	0017f713          	andi	a4,a5,1
80000c04:	02070c63          	beqz	a4,80000c3c <__swsetup_r+0x168>
80000c08:	01442783          	lw	a5,20(s0)
80000c0c:	00042423          	sw	zero,8(s0)
80000c10:	40f007b3          	neg	a5,a5
80000c14:	00f42c23          	sw	a5,24(s0)
80000c18:	01042783          	lw	a5,16(s0)
80000c1c:	00000513          	li	a0,0
80000c20:	f20798e3          	bnez	a5,80000b50 <__swsetup_r+0x7c>
80000c24:	00c41783          	lh	a5,12(s0)
80000c28:	0807f713          	andi	a4,a5,128
80000c2c:	f20702e3          	beqz	a4,80000b50 <__swsetup_r+0x7c>
80000c30:	0407e793          	ori	a5,a5,64
80000c34:	00f41623          	sh	a5,12(s0)
80000c38:	f15ff06f          	j	80000b4c <__swsetup_r+0x78>
80000c3c:	0027f793          	andi	a5,a5,2
80000c40:	00000713          	li	a4,0
80000c44:	00079463          	bnez	a5,80000c4c <__swsetup_r+0x178>
80000c48:	01442703          	lw	a4,20(s0)
80000c4c:	00e42423          	sw	a4,8(s0)
80000c50:	fc9ff06f          	j	80000c18 <__swsetup_r+0x144>

Disassembly of section .text.__sflush_r:

80000c54 <__sflush_r>:
__sflush_r():
80000c54:	00c5d783          	lhu	a5,12(a1)
80000c58:	fe010113          	addi	sp,sp,-32
80000c5c:	00812c23          	sw	s0,24(sp)
80000c60:	00912a23          	sw	s1,20(sp)
80000c64:	00112e23          	sw	ra,28(sp)
80000c68:	01212823          	sw	s2,16(sp)
80000c6c:	01312623          	sw	s3,12(sp)
80000c70:	0087f713          	andi	a4,a5,8
80000c74:	00050493          	mv	s1,a0
80000c78:	00058413          	mv	s0,a1
80000c7c:	14071e63          	bnez	a4,80000dd8 <__sflush_r+0x184>
80000c80:	0045a703          	lw	a4,4(a1)
80000c84:	00e04a63          	bgtz	a4,80000c98 <__sflush_r+0x44>
80000c88:	0405a703          	lw	a4,64(a1)
80000c8c:	00e04663          	bgtz	a4,80000c98 <__sflush_r+0x44>
80000c90:	00000513          	li	a0,0
80000c94:	11c0006f          	j	80000db0 <__sflush_r+0x15c>
80000c98:	02c42703          	lw	a4,44(s0)
80000c9c:	fe070ae3          	beqz	a4,80000c90 <__sflush_r+0x3c>
80000ca0:	0004a903          	lw	s2,0(s1)
80000ca4:	01379693          	slli	a3,a5,0x13
80000ca8:	0004a023          	sw	zero,0(s1)
80000cac:	0a06de63          	bgez	a3,80000d68 <__sflush_r+0x114>
80000cb0:	05442503          	lw	a0,84(s0)
80000cb4:	00c45783          	lhu	a5,12(s0)
80000cb8:	0047f793          	andi	a5,a5,4
80000cbc:	00078e63          	beqz	a5,80000cd8 <__sflush_r+0x84>
80000cc0:	00442783          	lw	a5,4(s0)
80000cc4:	40f50533          	sub	a0,a0,a5
80000cc8:	03442783          	lw	a5,52(s0)
80000ccc:	00078663          	beqz	a5,80000cd8 <__sflush_r+0x84>
80000cd0:	04042783          	lw	a5,64(s0)
80000cd4:	40f50533          	sub	a0,a0,a5
80000cd8:	02c42783          	lw	a5,44(s0)
80000cdc:	02042583          	lw	a1,32(s0)
80000ce0:	00050613          	mv	a2,a0
80000ce4:	00000693          	li	a3,0
80000ce8:	00048513          	mv	a0,s1
80000cec:	000780e7          	jalr	a5
80000cf0:	fff00793          	li	a5,-1
80000cf4:	00c45703          	lhu	a4,12(s0)
80000cf8:	02f51263          	bne	a0,a5,80000d1c <__sflush_r+0xc8>
80000cfc:	0004a683          	lw	a3,0(s1)
80000d00:	01d00793          	li	a5,29
80000d04:	0cd7e463          	bltu	a5,a3,80000dcc <__sflush_r+0x178>
80000d08:	204007b7          	lui	a5,0x20400
80000d0c:	00178793          	addi	a5,a5,1 # 20400001 <_start-0x5fbfffff>
80000d10:	00d7d7b3          	srl	a5,a5,a3
80000d14:	0017f793          	andi	a5,a5,1
80000d18:	0a078a63          	beqz	a5,80000dcc <__sflush_r+0x178>
80000d1c:	01042783          	lw	a5,16(s0)
80000d20:	00042223          	sw	zero,4(s0)
80000d24:	00f42023          	sw	a5,0(s0)
80000d28:	01371793          	slli	a5,a4,0x13
80000d2c:	0007dc63          	bgez	a5,80000d44 <__sflush_r+0xf0>
80000d30:	fff00793          	li	a5,-1
80000d34:	00f51663          	bne	a0,a5,80000d40 <__sflush_r+0xec>
80000d38:	0004a783          	lw	a5,0(s1)
80000d3c:	00079463          	bnez	a5,80000d44 <__sflush_r+0xf0>
80000d40:	04a42a23          	sw	a0,84(s0)
80000d44:	03442583          	lw	a1,52(s0)
80000d48:	0124a023          	sw	s2,0(s1)
80000d4c:	f40582e3          	beqz	a1,80000c90 <__sflush_r+0x3c>
80000d50:	04440793          	addi	a5,s0,68
80000d54:	00f58663          	beq	a1,a5,80000d60 <__sflush_r+0x10c>
80000d58:	00048513          	mv	a0,s1
80000d5c:	f2cff0ef          	jal	ra,80000488 <_free_r>
80000d60:	02042a23          	sw	zero,52(s0)
80000d64:	f2dff06f          	j	80000c90 <__sflush_r+0x3c>
80000d68:	02042583          	lw	a1,32(s0)
80000d6c:	00100693          	li	a3,1
80000d70:	00000613          	li	a2,0
80000d74:	00048513          	mv	a0,s1
80000d78:	000700e7          	jalr	a4
80000d7c:	fff00793          	li	a5,-1
80000d80:	f2f51ae3          	bne	a0,a5,80000cb4 <__sflush_r+0x60>
80000d84:	0004a783          	lw	a5,0(s1)
80000d88:	f20786e3          	beqz	a5,80000cb4 <__sflush_r+0x60>
80000d8c:	01d00713          	li	a4,29
80000d90:	00e78663          	beq	a5,a4,80000d9c <__sflush_r+0x148>
80000d94:	01600713          	li	a4,22
80000d98:	00e79663          	bne	a5,a4,80000da4 <__sflush_r+0x150>
80000d9c:	0124a023          	sw	s2,0(s1)
80000da0:	ef1ff06f          	j	80000c90 <__sflush_r+0x3c>
80000da4:	00c45783          	lhu	a5,12(s0)
80000da8:	0407e793          	ori	a5,a5,64
80000dac:	00f41623          	sh	a5,12(s0)
80000db0:	01c12083          	lw	ra,28(sp)
80000db4:	01812403          	lw	s0,24(sp)
80000db8:	01412483          	lw	s1,20(sp)
80000dbc:	01012903          	lw	s2,16(sp)
80000dc0:	00c12983          	lw	s3,12(sp)
80000dc4:	02010113          	addi	sp,sp,32
80000dc8:	00008067          	ret
80000dcc:	04076713          	ori	a4,a4,64
80000dd0:	00e41623          	sh	a4,12(s0)
80000dd4:	fddff06f          	j	80000db0 <__sflush_r+0x15c>
80000dd8:	0105a983          	lw	s3,16(a1)
80000ddc:	ea098ae3          	beqz	s3,80000c90 <__sflush_r+0x3c>
80000de0:	0005a903          	lw	s2,0(a1)
80000de4:	0037f793          	andi	a5,a5,3
80000de8:	0135a023          	sw	s3,0(a1)
80000dec:	41390933          	sub	s2,s2,s3
80000df0:	00000713          	li	a4,0
80000df4:	00079463          	bnez	a5,80000dfc <__sflush_r+0x1a8>
80000df8:	0145a703          	lw	a4,20(a1)
80000dfc:	00e42423          	sw	a4,8(s0)
80000e00:	e92058e3          	blez	s2,80000c90 <__sflush_r+0x3c>
80000e04:	02842783          	lw	a5,40(s0)
80000e08:	02042583          	lw	a1,32(s0)
80000e0c:	00090693          	mv	a3,s2
80000e10:	00098613          	mv	a2,s3
80000e14:	00048513          	mv	a0,s1
80000e18:	000780e7          	jalr	a5
80000e1c:	00a04c63          	bgtz	a0,80000e34 <__sflush_r+0x1e0>
80000e20:	00c45783          	lhu	a5,12(s0)
80000e24:	fff00513          	li	a0,-1
80000e28:	0407e793          	ori	a5,a5,64
80000e2c:	00f41623          	sh	a5,12(s0)
80000e30:	f81ff06f          	j	80000db0 <__sflush_r+0x15c>
80000e34:	00a989b3          	add	s3,s3,a0
80000e38:	40a90933          	sub	s2,s2,a0
80000e3c:	fc5ff06f          	j	80000e00 <__sflush_r+0x1ac>

Disassembly of section .text._fflush_r:

80000e40 <_fflush_r>:
_fflush_r():
80000e40:	0105a783          	lw	a5,16(a1)
80000e44:	08078a63          	beqz	a5,80000ed8 <_fflush_r+0x98>
80000e48:	fe010113          	addi	sp,sp,-32
80000e4c:	00812c23          	sw	s0,24(sp)
80000e50:	00112e23          	sw	ra,28(sp)
80000e54:	00050413          	mv	s0,a0
80000e58:	00050c63          	beqz	a0,80000e70 <_fflush_r+0x30>
80000e5c:	01852783          	lw	a5,24(a0)
80000e60:	00079863          	bnez	a5,80000e70 <_fflush_r+0x30>
80000e64:	00b12623          	sw	a1,12(sp)
80000e68:	178000ef          	jal	ra,80000fe0 <__sinit>
80000e6c:	00c12583          	lw	a1,12(sp)
80000e70:	00001797          	auipc	a5,0x1
80000e74:	2f078793          	addi	a5,a5,752 # 80002160 <__sf_fake_stdin>
80000e78:	02f59263          	bne	a1,a5,80000e9c <_fflush_r+0x5c>
80000e7c:	00442583          	lw	a1,4(s0)
80000e80:	00c59783          	lh	a5,12(a1)
80000e84:	04078063          	beqz	a5,80000ec4 <_fflush_r+0x84>
80000e88:	00040513          	mv	a0,s0
80000e8c:	01812403          	lw	s0,24(sp)
80000e90:	01c12083          	lw	ra,28(sp)
80000e94:	02010113          	addi	sp,sp,32
80000e98:	dbdff06f          	j	80000c54 <__sflush_r>
80000e9c:	00001797          	auipc	a5,0x1
80000ea0:	2e478793          	addi	a5,a5,740 # 80002180 <__sf_fake_stdout>
80000ea4:	00f59663          	bne	a1,a5,80000eb0 <_fflush_r+0x70>
80000ea8:	00842583          	lw	a1,8(s0)
80000eac:	fd5ff06f          	j	80000e80 <_fflush_r+0x40>
80000eb0:	00001797          	auipc	a5,0x1
80000eb4:	29078793          	addi	a5,a5,656 # 80002140 <__sf_fake_stderr>
80000eb8:	fcf594e3          	bne	a1,a5,80000e80 <_fflush_r+0x40>
80000ebc:	00c42583          	lw	a1,12(s0)
80000ec0:	fc1ff06f          	j	80000e80 <_fflush_r+0x40>
80000ec4:	01c12083          	lw	ra,28(sp)
80000ec8:	01812403          	lw	s0,24(sp)
80000ecc:	00000513          	li	a0,0
80000ed0:	02010113          	addi	sp,sp,32
80000ed4:	00008067          	ret
80000ed8:	00000513          	li	a0,0
80000edc:	00008067          	ret

Disassembly of section .text.std:

80000ee0 <std>:
std():
80000ee0:	ff010113          	addi	sp,sp,-16
80000ee4:	00812423          	sw	s0,8(sp)
80000ee8:	00112623          	sw	ra,12(sp)
80000eec:	00050413          	mv	s0,a0
80000ef0:	00b51623          	sh	a1,12(a0)
80000ef4:	00c51723          	sh	a2,14(a0)
80000ef8:	00052023          	sw	zero,0(a0)
80000efc:	00052223          	sw	zero,4(a0)
80000f00:	00052423          	sw	zero,8(a0)
80000f04:	06052223          	sw	zero,100(a0)
80000f08:	00052823          	sw	zero,16(a0)
80000f0c:	00052a23          	sw	zero,20(a0)
80000f10:	00052c23          	sw	zero,24(a0)
80000f14:	00800613          	li	a2,8
80000f18:	00000593          	li	a1,0
80000f1c:	05c50513          	addi	a0,a0,92
80000f20:	9b0ff0ef          	jal	ra,800000d0 <memset>
80000f24:	00001797          	auipc	a5,0x1
80000f28:	91078793          	addi	a5,a5,-1776 # 80001834 <__sread>
80000f2c:	02f42223          	sw	a5,36(s0)
80000f30:	00001797          	auipc	a5,0x1
80000f34:	95478793          	addi	a5,a5,-1708 # 80001884 <__swrite>
80000f38:	02f42423          	sw	a5,40(s0)
80000f3c:	00001797          	auipc	a5,0x1
80000f40:	9cc78793          	addi	a5,a5,-1588 # 80001908 <__sseek>
80000f44:	02f42623          	sw	a5,44(s0)
80000f48:	00001797          	auipc	a5,0x1
80000f4c:	a1878793          	addi	a5,a5,-1512 # 80001960 <__sclose>
80000f50:	02842023          	sw	s0,32(s0)
80000f54:	02f42823          	sw	a5,48(s0)
80000f58:	00c12083          	lw	ra,12(sp)
80000f5c:	00812403          	lw	s0,8(sp)
80000f60:	01010113          	addi	sp,sp,16
80000f64:	00008067          	ret

Disassembly of section .text._cleanup_r:

80000f68 <_cleanup_r>:
_cleanup_r():
80000f68:	00000597          	auipc	a1,0x0
80000f6c:	ed858593          	addi	a1,a1,-296 # 80000e40 <_fflush_r>
80000f70:	2140006f          	j	80001184 <_fwalk_reent>

Disassembly of section .text.__sfmoreglue:

80000f74 <__sfmoreglue>:
__sfmoreglue():
80000f74:	ff010113          	addi	sp,sp,-16
80000f78:	00912223          	sw	s1,4(sp)
80000f7c:	06800613          	li	a2,104
80000f80:	fff58493          	addi	s1,a1,-1
80000f84:	02c484b3          	mul	s1,s1,a2
80000f88:	01212023          	sw	s2,0(sp)
80000f8c:	00058913          	mv	s2,a1
80000f90:	00812423          	sw	s0,8(sp)
80000f94:	00112623          	sw	ra,12(sp)
80000f98:	07448593          	addi	a1,s1,116
80000f9c:	df8ff0ef          	jal	ra,80000594 <_malloc_r>
80000fa0:	00050413          	mv	s0,a0
80000fa4:	02050063          	beqz	a0,80000fc4 <__sfmoreglue+0x50>
80000fa8:	00052023          	sw	zero,0(a0)
80000fac:	01252223          	sw	s2,4(a0)
80000fb0:	00c50513          	addi	a0,a0,12
80000fb4:	00a42423          	sw	a0,8(s0)
80000fb8:	06848613          	addi	a2,s1,104
80000fbc:	00000593          	li	a1,0
80000fc0:	910ff0ef          	jal	ra,800000d0 <memset>
80000fc4:	00040513          	mv	a0,s0
80000fc8:	00c12083          	lw	ra,12(sp)
80000fcc:	00812403          	lw	s0,8(sp)
80000fd0:	00412483          	lw	s1,4(sp)
80000fd4:	00012903          	lw	s2,0(sp)
80000fd8:	01010113          	addi	sp,sp,16
80000fdc:	00008067          	ret

Disassembly of section .text.__sinit:

80000fe0 <__sinit>:
__sinit():
80000fe0:	01852783          	lw	a5,24(a0)
80000fe4:	0a079663          	bnez	a5,80001090 <__sinit+0xb0>
80000fe8:	ff010113          	addi	sp,sp,-16
80000fec:	00112623          	sw	ra,12(sp)
80000ff0:	00812423          	sw	s0,8(sp)
80000ff4:	00000797          	auipc	a5,0x0
80000ff8:	f7478793          	addi	a5,a5,-140 # 80000f68 <_cleanup_r>
80000ffc:	02f52423          	sw	a5,40(a0)
80001000:	00001797          	auipc	a5,0x1
80001004:	1a078793          	addi	a5,a5,416 # 800021a0 <_global_impure_ptr>
80001008:	0007a783          	lw	a5,0(a5)
8000100c:	04052423          	sw	zero,72(a0)
80001010:	04052623          	sw	zero,76(a0)
80001014:	04052823          	sw	zero,80(a0)
80001018:	00f51663          	bne	a0,a5,80001024 <__sinit+0x44>
8000101c:	00100793          	li	a5,1
80001020:	00f52c23          	sw	a5,24(a0)
80001024:	00050413          	mv	s0,a0
80001028:	06c000ef          	jal	ra,80001094 <__sfp>
8000102c:	00a42223          	sw	a0,4(s0)
80001030:	00040513          	mv	a0,s0
80001034:	060000ef          	jal	ra,80001094 <__sfp>
80001038:	00a42423          	sw	a0,8(s0)
8000103c:	00040513          	mv	a0,s0
80001040:	054000ef          	jal	ra,80001094 <__sfp>
80001044:	00a42623          	sw	a0,12(s0)
80001048:	00442503          	lw	a0,4(s0)
8000104c:	00000613          	li	a2,0
80001050:	00400593          	li	a1,4
80001054:	e8dff0ef          	jal	ra,80000ee0 <std>
80001058:	00842503          	lw	a0,8(s0)
8000105c:	00100613          	li	a2,1
80001060:	00900593          	li	a1,9
80001064:	e7dff0ef          	jal	ra,80000ee0 <std>
80001068:	00c42503          	lw	a0,12(s0)
8000106c:	00200613          	li	a2,2
80001070:	01200593          	li	a1,18
80001074:	e6dff0ef          	jal	ra,80000ee0 <std>
80001078:	00100793          	li	a5,1
8000107c:	00f42c23          	sw	a5,24(s0)
80001080:	00c12083          	lw	ra,12(sp)
80001084:	00812403          	lw	s0,8(sp)
80001088:	01010113          	addi	sp,sp,16
8000108c:	00008067          	ret
80001090:	00008067          	ret

Disassembly of section .text.__sfp:

80001094 <__sfp>:
__sfp():
80001094:	ff010113          	addi	sp,sp,-16
80001098:	00001797          	auipc	a5,0x1
8000109c:	10878793          	addi	a5,a5,264 # 800021a0 <_global_impure_ptr>
800010a0:	00912223          	sw	s1,4(sp)
800010a4:	0007a483          	lw	s1,0(a5)
800010a8:	01212023          	sw	s2,0(sp)
800010ac:	00112623          	sw	ra,12(sp)
800010b0:	0184a783          	lw	a5,24(s1)
800010b4:	00812423          	sw	s0,8(sp)
800010b8:	00050913          	mv	s2,a0
800010bc:	00079663          	bnez	a5,800010c8 <__sfp+0x34>
800010c0:	00048513          	mv	a0,s1
800010c4:	f1dff0ef          	jal	ra,80000fe0 <__sinit>
800010c8:	04848493          	addi	s1,s1,72
800010cc:	0084a403          	lw	s0,8(s1)
800010d0:	0044a783          	lw	a5,4(s1)
800010d4:	fff78793          	addi	a5,a5,-1
800010d8:	0007da63          	bgez	a5,800010ec <__sfp+0x58>
800010dc:	0004a783          	lw	a5,0(s1)
800010e0:	08078063          	beqz	a5,80001160 <__sfp+0xcc>
800010e4:	0004a483          	lw	s1,0(s1)
800010e8:	fe5ff06f          	j	800010cc <__sfp+0x38>
800010ec:	00c41703          	lh	a4,12(s0)
800010f0:	06071463          	bnez	a4,80001158 <__sfp+0xc4>
800010f4:	ffff07b7          	lui	a5,0xffff0
800010f8:	00178793          	addi	a5,a5,1 # ffff0001 <_gpio_creg+0x3ffefff5>
800010fc:	06042223          	sw	zero,100(s0)
80001100:	00042023          	sw	zero,0(s0)
80001104:	00042223          	sw	zero,4(s0)
80001108:	00042423          	sw	zero,8(s0)
8000110c:	00f42623          	sw	a5,12(s0)
80001110:	00042823          	sw	zero,16(s0)
80001114:	00042a23          	sw	zero,20(s0)
80001118:	00042c23          	sw	zero,24(s0)
8000111c:	00800613          	li	a2,8
80001120:	00000593          	li	a1,0
80001124:	05c40513          	addi	a0,s0,92
80001128:	fa9fe0ef          	jal	ra,800000d0 <memset>
8000112c:	02042a23          	sw	zero,52(s0)
80001130:	02042c23          	sw	zero,56(s0)
80001134:	04042423          	sw	zero,72(s0)
80001138:	04042623          	sw	zero,76(s0)
8000113c:	00040513          	mv	a0,s0
80001140:	00c12083          	lw	ra,12(sp)
80001144:	00812403          	lw	s0,8(sp)
80001148:	00412483          	lw	s1,4(sp)
8000114c:	00012903          	lw	s2,0(sp)
80001150:	01010113          	addi	sp,sp,16
80001154:	00008067          	ret
80001158:	06840413          	addi	s0,s0,104
8000115c:	f79ff06f          	j	800010d4 <__sfp+0x40>
80001160:	00400593          	li	a1,4
80001164:	00090513          	mv	a0,s2
80001168:	e0dff0ef          	jal	ra,80000f74 <__sfmoreglue>
8000116c:	00a4a023          	sw	a0,0(s1)
80001170:	00050413          	mv	s0,a0
80001174:	f60518e3          	bnez	a0,800010e4 <__sfp+0x50>
80001178:	00c00793          	li	a5,12
8000117c:	00f92023          	sw	a5,0(s2)
80001180:	fbdff06f          	j	8000113c <__sfp+0xa8>

Disassembly of section .text._fwalk_reent:

80001184 <_fwalk_reent>:
_fwalk_reent():
80001184:	fd010113          	addi	sp,sp,-48
80001188:	02812423          	sw	s0,40(sp)
8000118c:	03212023          	sw	s2,32(sp)
80001190:	01412c23          	sw	s4,24(sp)
80001194:	01512a23          	sw	s5,20(sp)
80001198:	01612823          	sw	s6,16(sp)
8000119c:	01712623          	sw	s7,12(sp)
800011a0:	02112623          	sw	ra,44(sp)
800011a4:	02912223          	sw	s1,36(sp)
800011a8:	01312e23          	sw	s3,28(sp)
800011ac:	00050a13          	mv	s4,a0
800011b0:	00058a93          	mv	s5,a1
800011b4:	04850413          	addi	s0,a0,72
800011b8:	00000913          	li	s2,0
800011bc:	00100b13          	li	s6,1
800011c0:	fff00b93          	li	s7,-1
800011c4:	02041a63          	bnez	s0,800011f8 <_fwalk_reent+0x74>
800011c8:	02c12083          	lw	ra,44(sp)
800011cc:	02812403          	lw	s0,40(sp)
800011d0:	00090513          	mv	a0,s2
800011d4:	02412483          	lw	s1,36(sp)
800011d8:	02012903          	lw	s2,32(sp)
800011dc:	01c12983          	lw	s3,28(sp)
800011e0:	01812a03          	lw	s4,24(sp)
800011e4:	01412a83          	lw	s5,20(sp)
800011e8:	01012b03          	lw	s6,16(sp)
800011ec:	00c12b83          	lw	s7,12(sp)
800011f0:	03010113          	addi	sp,sp,48
800011f4:	00008067          	ret
800011f8:	00842483          	lw	s1,8(s0)
800011fc:	00442983          	lw	s3,4(s0)
80001200:	fff98993          	addi	s3,s3,-1
80001204:	0009d663          	bgez	s3,80001210 <_fwalk_reent+0x8c>
80001208:	00042403          	lw	s0,0(s0)
8000120c:	fb9ff06f          	j	800011c4 <_fwalk_reent+0x40>
80001210:	00c4d783          	lhu	a5,12(s1)
80001214:	00fb7e63          	bgeu	s6,a5,80001230 <_fwalk_reent+0xac>
80001218:	00e49783          	lh	a5,14(s1)
8000121c:	01778a63          	beq	a5,s7,80001230 <_fwalk_reent+0xac>
80001220:	00048593          	mv	a1,s1
80001224:	000a0513          	mv	a0,s4
80001228:	000a80e7          	jalr	s5
8000122c:	00a96933          	or	s2,s2,a0
80001230:	06848493          	addi	s1,s1,104
80001234:	fcdff06f          	j	80001200 <_fwalk_reent+0x7c>

Disassembly of section .text.__swhatbuf_r:

80001238 <__swhatbuf_r>:
__swhatbuf_r():
80001238:	f8010113          	addi	sp,sp,-128
8000123c:	06912a23          	sw	s1,116(sp)
80001240:	00058493          	mv	s1,a1
80001244:	00e59583          	lh	a1,14(a1)
80001248:	06812c23          	sw	s0,120(sp)
8000124c:	06112e23          	sw	ra,124(sp)
80001250:	00060413          	mv	s0,a2
80001254:	0005de63          	bgez	a1,80001270 <__swhatbuf_r+0x38>
80001258:	00c4d783          	lhu	a5,12(s1)
8000125c:	0006a023          	sw	zero,0(a3)
80001260:	0807f793          	andi	a5,a5,128
80001264:	04079063          	bnez	a5,800012a4 <__swhatbuf_r+0x6c>
80001268:	40000793          	li	a5,1024
8000126c:	03c0006f          	j	800012a8 <__swhatbuf_r+0x70>
80001270:	01810613          	addi	a2,sp,24
80001274:	00d12623          	sw	a3,12(sp)
80001278:	73c000ef          	jal	ra,800019b4 <_fstat_r>
8000127c:	00c12683          	lw	a3,12(sp)
80001280:	fc054ce3          	bltz	a0,80001258 <__swhatbuf_r+0x20>
80001284:	01c12703          	lw	a4,28(sp)
80001288:	0000f7b7          	lui	a5,0xf
8000128c:	00e7f7b3          	and	a5,a5,a4
80001290:	ffffe737          	lui	a4,0xffffe
80001294:	00e787b3          	add	a5,a5,a4
80001298:	0017b793          	seqz	a5,a5
8000129c:	00f6a023          	sw	a5,0(a3)
800012a0:	fc9ff06f          	j	80001268 <__swhatbuf_r+0x30>
800012a4:	04000793          	li	a5,64
800012a8:	00f42023          	sw	a5,0(s0)
800012ac:	07c12083          	lw	ra,124(sp)
800012b0:	07812403          	lw	s0,120(sp)
800012b4:	07412483          	lw	s1,116(sp)
800012b8:	00000513          	li	a0,0
800012bc:	08010113          	addi	sp,sp,128
800012c0:	00008067          	ret

Disassembly of section .text.__smakebuf_r:

800012c4 <__smakebuf_r>:
__smakebuf_r():
800012c4:	00c5d783          	lhu	a5,12(a1)
800012c8:	fe010113          	addi	sp,sp,-32
800012cc:	00812c23          	sw	s0,24(sp)
800012d0:	00112e23          	sw	ra,28(sp)
800012d4:	00912a23          	sw	s1,20(sp)
800012d8:	01212823          	sw	s2,16(sp)
800012dc:	0027f793          	andi	a5,a5,2
800012e0:	00058413          	mv	s0,a1
800012e4:	02078863          	beqz	a5,80001314 <__smakebuf_r+0x50>
800012e8:	04740793          	addi	a5,s0,71
800012ec:	00f42023          	sw	a5,0(s0)
800012f0:	00f42823          	sw	a5,16(s0)
800012f4:	00100793          	li	a5,1
800012f8:	00f42a23          	sw	a5,20(s0)
800012fc:	01c12083          	lw	ra,28(sp)
80001300:	01812403          	lw	s0,24(sp)
80001304:	01412483          	lw	s1,20(sp)
80001308:	01012903          	lw	s2,16(sp)
8000130c:	02010113          	addi	sp,sp,32
80001310:	00008067          	ret
80001314:	00c10693          	addi	a3,sp,12
80001318:	00810613          	addi	a2,sp,8
8000131c:	00050493          	mv	s1,a0
80001320:	f19ff0ef          	jal	ra,80001238 <__swhatbuf_r>
80001324:	00812583          	lw	a1,8(sp)
80001328:	00050913          	mv	s2,a0
8000132c:	00048513          	mv	a0,s1
80001330:	a64ff0ef          	jal	ra,80000594 <_malloc_r>
80001334:	02051063          	bnez	a0,80001354 <__smakebuf_r+0x90>
80001338:	00c41783          	lh	a5,12(s0)
8000133c:	2007f713          	andi	a4,a5,512
80001340:	fa071ee3          	bnez	a4,800012fc <__smakebuf_r+0x38>
80001344:	ffc7f793          	andi	a5,a5,-4
80001348:	0027e793          	ori	a5,a5,2
8000134c:	00f41623          	sh	a5,12(s0)
80001350:	f99ff06f          	j	800012e8 <__smakebuf_r+0x24>
80001354:	00000797          	auipc	a5,0x0
80001358:	c1478793          	addi	a5,a5,-1004 # 80000f68 <_cleanup_r>
8000135c:	02f4a423          	sw	a5,40(s1)
80001360:	00c45783          	lhu	a5,12(s0)
80001364:	00a42023          	sw	a0,0(s0)
80001368:	00a42823          	sw	a0,16(s0)
8000136c:	0807e793          	ori	a5,a5,128
80001370:	00f41623          	sh	a5,12(s0)
80001374:	00812783          	lw	a5,8(sp)
80001378:	00f42a23          	sw	a5,20(s0)
8000137c:	00c12783          	lw	a5,12(sp)
80001380:	02078263          	beqz	a5,800013a4 <__smakebuf_r+0xe0>
80001384:	00e41583          	lh	a1,14(s0)
80001388:	00048513          	mv	a0,s1
8000138c:	678000ef          	jal	ra,80001a04 <_isatty_r>
80001390:	00050a63          	beqz	a0,800013a4 <__smakebuf_r+0xe0>
80001394:	00c45783          	lhu	a5,12(s0)
80001398:	ffc7f793          	andi	a5,a5,-4
8000139c:	0017e793          	ori	a5,a5,1
800013a0:	00f41623          	sh	a5,12(s0)
800013a4:	00c45783          	lhu	a5,12(s0)
800013a8:	00f96933          	or	s2,s2,a5
800013ac:	01241623          	sh	s2,12(s0)
800013b0:	f4dff06f          	j	800012fc <__smakebuf_r+0x38>

Disassembly of section .text.__malloc_lock:

800013b4 <__malloc_lock>:
__malloc_lock():
800013b4:	00008067          	ret

Disassembly of section .text.__malloc_unlock:

800013b8 <__malloc_unlock>:
__malloc_unlock():
800013b8:	00008067          	ret

Disassembly of section .text.__sfputc_r:

800013bc <__sfputc_r>:
__sfputc_r():
800013bc:	00862783          	lw	a5,8(a2)
800013c0:	fff78793          	addi	a5,a5,-1
800013c4:	00f62423          	sw	a5,8(a2)
800013c8:	0007dc63          	bgez	a5,800013e0 <__sfputc_r+0x24>
800013cc:	01862703          	lw	a4,24(a2)
800013d0:	00e7c663          	blt	a5,a4,800013dc <__sfputc_r+0x20>
800013d4:	00a00793          	li	a5,10
800013d8:	00f59463          	bne	a1,a5,800013e0 <__sfputc_r+0x24>
800013dc:	d6cff06f          	j	80000948 <__swbuf_r>
800013e0:	00062783          	lw	a5,0(a2)
800013e4:	00058513          	mv	a0,a1
800013e8:	00178713          	addi	a4,a5,1
800013ec:	00e62023          	sw	a4,0(a2)
800013f0:	00b78023          	sb	a1,0(a5)
800013f4:	00008067          	ret

Disassembly of section .text.__sfputs_r:

800013f8 <__sfputs_r>:
__sfputs_r():
800013f8:	fe010113          	addi	sp,sp,-32
800013fc:	00812c23          	sw	s0,24(sp)
80001400:	00912a23          	sw	s1,20(sp)
80001404:	01212823          	sw	s2,16(sp)
80001408:	01312623          	sw	s3,12(sp)
8000140c:	01412423          	sw	s4,8(sp)
80001410:	00112e23          	sw	ra,28(sp)
80001414:	00050913          	mv	s2,a0
80001418:	00058993          	mv	s3,a1
8000141c:	00060413          	mv	s0,a2
80001420:	00d604b3          	add	s1,a2,a3
80001424:	fff00a13          	li	s4,-1
80001428:	00941663          	bne	s0,s1,80001434 <__sfputs_r+0x3c>
8000142c:	00000513          	li	a0,0
80001430:	01c0006f          	j	8000144c <__sfputs_r+0x54>
80001434:	00044583          	lbu	a1,0(s0)
80001438:	00098613          	mv	a2,s3
8000143c:	00090513          	mv	a0,s2
80001440:	f7dff0ef          	jal	ra,800013bc <__sfputc_r>
80001444:	00140413          	addi	s0,s0,1
80001448:	ff4510e3          	bne	a0,s4,80001428 <__sfputs_r+0x30>
8000144c:	01c12083          	lw	ra,28(sp)
80001450:	01812403          	lw	s0,24(sp)
80001454:	01412483          	lw	s1,20(sp)
80001458:	01012903          	lw	s2,16(sp)
8000145c:	00c12983          	lw	s3,12(sp)
80001460:	00812a03          	lw	s4,8(sp)
80001464:	02010113          	addi	sp,sp,32
80001468:	00008067          	ret

Disassembly of section .text._vfprintf_r:

8000146c <_vfiprintf_r>:
_vfiprintf_r():
8000146c:	f6010113          	addi	sp,sp,-160
80001470:	08812c23          	sw	s0,152(sp)
80001474:	08912a23          	sw	s1,148(sp)
80001478:	09212823          	sw	s2,144(sp)
8000147c:	09312623          	sw	s3,140(sp)
80001480:	08112e23          	sw	ra,156(sp)
80001484:	09412423          	sw	s4,136(sp)
80001488:	09512223          	sw	s5,132(sp)
8000148c:	09612023          	sw	s6,128(sp)
80001490:	07712e23          	sw	s7,124(sp)
80001494:	07812c23          	sw	s8,120(sp)
80001498:	07912a23          	sw	s9,116(sp)
8000149c:	00050993          	mv	s3,a0
800014a0:	00058493          	mv	s1,a1
800014a4:	00060913          	mv	s2,a2
800014a8:	00068413          	mv	s0,a3
800014ac:	00050863          	beqz	a0,800014bc <_vfiprintf_r+0x50>
800014b0:	01852783          	lw	a5,24(a0)
800014b4:	00079463          	bnez	a5,800014bc <_vfiprintf_r+0x50>
800014b8:	b29ff0ef          	jal	ra,80000fe0 <__sinit>
800014bc:	00001797          	auipc	a5,0x1
800014c0:	ca478793          	addi	a5,a5,-860 # 80002160 <__sf_fake_stdin>
800014c4:	12f49263          	bne	s1,a5,800015e8 <_vfiprintf_r+0x17c>
800014c8:	0049a483          	lw	s1,4(s3)
800014cc:	00c4d783          	lhu	a5,12(s1)
800014d0:	0087f793          	andi	a5,a5,8
800014d4:	12078e63          	beqz	a5,80001610 <_vfiprintf_r+0x1a4>
800014d8:	0104a783          	lw	a5,16(s1)
800014dc:	12078a63          	beqz	a5,80001610 <_vfiprintf_r+0x1a4>
800014e0:	02000793          	li	a5,32
800014e4:	02f104a3          	sb	a5,41(sp)
800014e8:	03000793          	li	a5,48
800014ec:	02012223          	sw	zero,36(sp)
800014f0:	02f10523          	sb	a5,42(sp)
800014f4:	00812623          	sw	s0,12(sp)
800014f8:	02500b93          	li	s7,37
800014fc:	00001a97          	auipc	s5,0x1
80001500:	ca8a8a93          	addi	s5,s5,-856 # 800021a4 <_global_impure_ptr+0x4>
80001504:	00100c13          	li	s8,1
80001508:	00a00b13          	li	s6,10
8000150c:	00090413          	mv	s0,s2
80001510:	00044783          	lbu	a5,0(s0)
80001514:	00078463          	beqz	a5,8000151c <_vfiprintf_r+0xb0>
80001518:	15779063          	bne	a5,s7,80001658 <_vfiprintf_r+0x1ec>
8000151c:	41240cb3          	sub	s9,s0,s2
80001520:	020c8663          	beqz	s9,8000154c <_vfiprintf_r+0xe0>
80001524:	000c8693          	mv	a3,s9
80001528:	00090613          	mv	a2,s2
8000152c:	00048593          	mv	a1,s1
80001530:	00098513          	mv	a0,s3
80001534:	ec5ff0ef          	jal	ra,800013f8 <__sfputs_r>
80001538:	fff00793          	li	a5,-1
8000153c:	2cf50263          	beq	a0,a5,80001800 <_vfiprintf_r+0x394>
80001540:	02412683          	lw	a3,36(sp)
80001544:	019686b3          	add	a3,a3,s9
80001548:	02d12223          	sw	a3,36(sp)
8000154c:	00044783          	lbu	a5,0(s0)
80001550:	2a078863          	beqz	a5,80001800 <_vfiprintf_r+0x394>
80001554:	fff00793          	li	a5,-1
80001558:	00140913          	addi	s2,s0,1
8000155c:	00012823          	sw	zero,16(sp)
80001560:	00012e23          	sw	zero,28(sp)
80001564:	00f12a23          	sw	a5,20(sp)
80001568:	00012c23          	sw	zero,24(sp)
8000156c:	040109a3          	sb	zero,83(sp)
80001570:	06012423          	sw	zero,104(sp)
80001574:	00094583          	lbu	a1,0(s2)
80001578:	00500613          	li	a2,5
8000157c:	000a8513          	mv	a0,s5
80001580:	524000ef          	jal	ra,80001aa4 <memchr>
80001584:	00190413          	addi	s0,s2,1
80001588:	01012783          	lw	a5,16(sp)
8000158c:	0c051a63          	bnez	a0,80001660 <_vfiprintf_r+0x1f4>
80001590:	0107f713          	andi	a4,a5,16
80001594:	00070663          	beqz	a4,800015a0 <_vfiprintf_r+0x134>
80001598:	02000713          	li	a4,32
8000159c:	04e109a3          	sb	a4,83(sp)
800015a0:	0087f713          	andi	a4,a5,8
800015a4:	00070663          	beqz	a4,800015b0 <_vfiprintf_r+0x144>
800015a8:	02b00713          	li	a4,43
800015ac:	04e109a3          	sb	a4,83(sp)
800015b0:	00094683          	lbu	a3,0(s2)
800015b4:	02a00713          	li	a4,42
800015b8:	0ce68063          	beq	a3,a4,80001678 <_vfiprintf_r+0x20c>
800015bc:	01c12783          	lw	a5,28(sp)
800015c0:	00090413          	mv	s0,s2
800015c4:	00000693          	li	a3,0
800015c8:	00900613          	li	a2,9
800015cc:	00044703          	lbu	a4,0(s0)
800015d0:	00140593          	addi	a1,s0,1
800015d4:	fd070713          	addi	a4,a4,-48 # ffffdfd0 <_gpio_creg+0x3fffdfc4>
800015d8:	10e67263          	bgeu	a2,a4,800016dc <_vfiprintf_r+0x270>
800015dc:	0a068a63          	beqz	a3,80001690 <_vfiprintf_r+0x224>
800015e0:	00f12e23          	sw	a5,28(sp)
800015e4:	0ac0006f          	j	80001690 <_vfiprintf_r+0x224>
800015e8:	00001797          	auipc	a5,0x1
800015ec:	b9878793          	addi	a5,a5,-1128 # 80002180 <__sf_fake_stdout>
800015f0:	00f49663          	bne	s1,a5,800015fc <_vfiprintf_r+0x190>
800015f4:	0089a483          	lw	s1,8(s3)
800015f8:	ed5ff06f          	j	800014cc <_vfiprintf_r+0x60>
800015fc:	00001797          	auipc	a5,0x1
80001600:	b4478793          	addi	a5,a5,-1212 # 80002140 <__sf_fake_stderr>
80001604:	ecf494e3          	bne	s1,a5,800014cc <_vfiprintf_r+0x60>
80001608:	00c9a483          	lw	s1,12(s3)
8000160c:	ec1ff06f          	j	800014cc <_vfiprintf_r+0x60>
80001610:	00048593          	mv	a1,s1
80001614:	00098513          	mv	a0,s3
80001618:	cbcff0ef          	jal	ra,80000ad4 <__swsetup_r>
8000161c:	ec0502e3          	beqz	a0,800014e0 <_vfiprintf_r+0x74>
80001620:	fff00513          	li	a0,-1
80001624:	09c12083          	lw	ra,156(sp)
80001628:	09812403          	lw	s0,152(sp)
8000162c:	09412483          	lw	s1,148(sp)
80001630:	09012903          	lw	s2,144(sp)
80001634:	08c12983          	lw	s3,140(sp)
80001638:	08812a03          	lw	s4,136(sp)
8000163c:	08412a83          	lw	s5,132(sp)
80001640:	08012b03          	lw	s6,128(sp)
80001644:	07c12b83          	lw	s7,124(sp)
80001648:	07812c03          	lw	s8,120(sp)
8000164c:	07412c83          	lw	s9,116(sp)
80001650:	0a010113          	addi	sp,sp,160
80001654:	00008067          	ret
80001658:	00140413          	addi	s0,s0,1
8000165c:	eb5ff06f          	j	80001510 <_vfiprintf_r+0xa4>
80001660:	41550533          	sub	a0,a0,s5
80001664:	00ac1533          	sll	a0,s8,a0
80001668:	00a7e7b3          	or	a5,a5,a0
8000166c:	00f12823          	sw	a5,16(sp)
80001670:	00040913          	mv	s2,s0
80001674:	f01ff06f          	j	80001574 <_vfiprintf_r+0x108>
80001678:	00c12703          	lw	a4,12(sp)
8000167c:	00470693          	addi	a3,a4,4
80001680:	00072703          	lw	a4,0(a4)
80001684:	00d12623          	sw	a3,12(sp)
80001688:	04074063          	bltz	a4,800016c8 <_vfiprintf_r+0x25c>
8000168c:	00e12e23          	sw	a4,28(sp)
80001690:	00044703          	lbu	a4,0(s0)
80001694:	02e00793          	li	a5,46
80001698:	08f71463          	bne	a4,a5,80001720 <_vfiprintf_r+0x2b4>
8000169c:	00144703          	lbu	a4,1(s0)
800016a0:	02a00793          	li	a5,42
800016a4:	04f71a63          	bne	a4,a5,800016f8 <_vfiprintf_r+0x28c>
800016a8:	00c12783          	lw	a5,12(sp)
800016ac:	00240413          	addi	s0,s0,2
800016b0:	00478713          	addi	a4,a5,4
800016b4:	0007a783          	lw	a5,0(a5)
800016b8:	00e12623          	sw	a4,12(sp)
800016bc:	0207ca63          	bltz	a5,800016f0 <_vfiprintf_r+0x284>
800016c0:	00f12a23          	sw	a5,20(sp)
800016c4:	05c0006f          	j	80001720 <_vfiprintf_r+0x2b4>
800016c8:	40e00733          	neg	a4,a4
800016cc:	0027e793          	ori	a5,a5,2
800016d0:	00e12e23          	sw	a4,28(sp)
800016d4:	00f12823          	sw	a5,16(sp)
800016d8:	fb9ff06f          	j	80001690 <_vfiprintf_r+0x224>
800016dc:	036787b3          	mul	a5,a5,s6
800016e0:	00100693          	li	a3,1
800016e4:	00058413          	mv	s0,a1
800016e8:	00e787b3          	add	a5,a5,a4
800016ec:	ee1ff06f          	j	800015cc <_vfiprintf_r+0x160>
800016f0:	fff00793          	li	a5,-1
800016f4:	fcdff06f          	j	800016c0 <_vfiprintf_r+0x254>
800016f8:	00140413          	addi	s0,s0,1
800016fc:	00012a23          	sw	zero,20(sp)
80001700:	00000693          	li	a3,0
80001704:	00000793          	li	a5,0
80001708:	00900613          	li	a2,9
8000170c:	00044703          	lbu	a4,0(s0)
80001710:	00140593          	addi	a1,s0,1
80001714:	fd070713          	addi	a4,a4,-48
80001718:	08e67c63          	bgeu	a2,a4,800017b0 <_vfiprintf_r+0x344>
8000171c:	fa0692e3          	bnez	a3,800016c0 <_vfiprintf_r+0x254>
80001720:	00044583          	lbu	a1,0(s0)
80001724:	00300613          	li	a2,3
80001728:	00001517          	auipc	a0,0x1
8000172c:	a8450513          	addi	a0,a0,-1404 # 800021ac <_global_impure_ptr+0xc>
80001730:	374000ef          	jal	ra,80001aa4 <memchr>
80001734:	02050463          	beqz	a0,8000175c <_vfiprintf_r+0x2f0>
80001738:	00001797          	auipc	a5,0x1
8000173c:	a7478793          	addi	a5,a5,-1420 # 800021ac <_global_impure_ptr+0xc>
80001740:	40f50533          	sub	a0,a0,a5
80001744:	04000793          	li	a5,64
80001748:	00a797b3          	sll	a5,a5,a0
8000174c:	01012503          	lw	a0,16(sp)
80001750:	00140413          	addi	s0,s0,1
80001754:	00f56533          	or	a0,a0,a5
80001758:	00a12823          	sw	a0,16(sp)
8000175c:	00044583          	lbu	a1,0(s0)
80001760:	00600613          	li	a2,6
80001764:	00001517          	auipc	a0,0x1
80001768:	a4c50513          	addi	a0,a0,-1460 # 800021b0 <_global_impure_ptr+0x10>
8000176c:	00140913          	addi	s2,s0,1
80001770:	02b10423          	sb	a1,40(sp)
80001774:	330000ef          	jal	ra,80001aa4 <memchr>
80001778:	08050e63          	beqz	a0,80001814 <_vfiprintf_r+0x3a8>
8000177c:	7ffff797          	auipc	a5,0x7ffff
80001780:	88478793          	addi	a5,a5,-1916 # 0 <_gpio_creg+0x3ffffff4>
80001784:	04079863          	bnez	a5,800017d4 <_vfiprintf_r+0x368>
80001788:	01012703          	lw	a4,16(sp)
8000178c:	00c12783          	lw	a5,12(sp)
80001790:	10077713          	andi	a4,a4,256
80001794:	02070863          	beqz	a4,800017c4 <_vfiprintf_r+0x358>
80001798:	00478793          	addi	a5,a5,4
8000179c:	00f12623          	sw	a5,12(sp)
800017a0:	02412783          	lw	a5,36(sp)
800017a4:	014787b3          	add	a5,a5,s4
800017a8:	02f12223          	sw	a5,36(sp)
800017ac:	d61ff06f          	j	8000150c <_vfiprintf_r+0xa0>
800017b0:	036787b3          	mul	a5,a5,s6
800017b4:	00100693          	li	a3,1
800017b8:	00058413          	mv	s0,a1
800017bc:	00e787b3          	add	a5,a5,a4
800017c0:	f4dff06f          	j	8000170c <_vfiprintf_r+0x2a0>
800017c4:	00778793          	addi	a5,a5,7
800017c8:	ff87f793          	andi	a5,a5,-8
800017cc:	00878793          	addi	a5,a5,8
800017d0:	fcdff06f          	j	8000179c <_vfiprintf_r+0x330>
800017d4:	00c10713          	addi	a4,sp,12
800017d8:	00000697          	auipc	a3,0x0
800017dc:	c2068693          	addi	a3,a3,-992 # 800013f8 <__sfputs_r>
800017e0:	00048613          	mv	a2,s1
800017e4:	01010593          	addi	a1,sp,16
800017e8:	00098513          	mv	a0,s3
800017ec:	00000097          	auipc	ra,0x0
800017f0:	000000e7          	jalr	zero # 0 <_start-0x80000000>
800017f4:	fff00793          	li	a5,-1
800017f8:	00050a13          	mv	s4,a0
800017fc:	faf512e3          	bne	a0,a5,800017a0 <_vfiprintf_r+0x334>
80001800:	00c4d783          	lhu	a5,12(s1)
80001804:	0407f793          	andi	a5,a5,64
80001808:	e0079ce3          	bnez	a5,80001620 <_vfiprintf_r+0x1b4>
8000180c:	02412503          	lw	a0,36(sp)
80001810:	e15ff06f          	j	80001624 <_vfiprintf_r+0x1b8>
80001814:	00c10713          	addi	a4,sp,12
80001818:	00000697          	auipc	a3,0x0
8000181c:	be068693          	addi	a3,a3,-1056 # 800013f8 <__sfputs_r>
80001820:	00048613          	mv	a2,s1
80001824:	01010593          	addi	a1,sp,16
80001828:	00098513          	mv	a0,s3
8000182c:	44c000ef          	jal	ra,80001c78 <_printf_i>
80001830:	fc5ff06f          	j	800017f4 <_vfiprintf_r+0x388>

Disassembly of section .text.__sread:

80001834 <__sread>:
__sread():
80001834:	ff010113          	addi	sp,sp,-16
80001838:	00812423          	sw	s0,8(sp)
8000183c:	00058413          	mv	s0,a1
80001840:	00e59583          	lh	a1,14(a1)
80001844:	00112623          	sw	ra,12(sp)
80001848:	7fc000ef          	jal	ra,80002044 <_read_r>
8000184c:	02054063          	bltz	a0,8000186c <__sread+0x38>
80001850:	05442783          	lw	a5,84(s0)
80001854:	00a787b3          	add	a5,a5,a0
80001858:	04f42a23          	sw	a5,84(s0)
8000185c:	00c12083          	lw	ra,12(sp)
80001860:	00812403          	lw	s0,8(sp)
80001864:	01010113          	addi	sp,sp,16
80001868:	00008067          	ret
8000186c:	00c45783          	lhu	a5,12(s0)
80001870:	fffff737          	lui	a4,0xfffff
80001874:	fff70713          	addi	a4,a4,-1 # ffffefff <_gpio_creg+0x3fffeff3>
80001878:	00e7f7b3          	and	a5,a5,a4
8000187c:	00f41623          	sh	a5,12(s0)
80001880:	fddff06f          	j	8000185c <__sread+0x28>

Disassembly of section .text.__swrite:

80001884 <__swrite>:
__swrite():
80001884:	00c5d783          	lhu	a5,12(a1)
80001888:	fe010113          	addi	sp,sp,-32
8000188c:	00812c23          	sw	s0,24(sp)
80001890:	00912a23          	sw	s1,20(sp)
80001894:	01212823          	sw	s2,16(sp)
80001898:	01312623          	sw	s3,12(sp)
8000189c:	00112e23          	sw	ra,28(sp)
800018a0:	1007f793          	andi	a5,a5,256
800018a4:	00050493          	mv	s1,a0
800018a8:	00058413          	mv	s0,a1
800018ac:	00060913          	mv	s2,a2
800018b0:	00068993          	mv	s3,a3
800018b4:	00078a63          	beqz	a5,800018c8 <__swrite+0x44>
800018b8:	00e59583          	lh	a1,14(a1)
800018bc:	00200693          	li	a3,2
800018c0:	00000613          	li	a2,0
800018c4:	18c000ef          	jal	ra,80001a50 <_lseek_r>
800018c8:	00c45783          	lhu	a5,12(s0)
800018cc:	fffff737          	lui	a4,0xfffff
800018d0:	fff70713          	addi	a4,a4,-1 # ffffefff <_gpio_creg+0x3fffeff3>
800018d4:	00e7f7b3          	and	a5,a5,a4
800018d8:	00f41623          	sh	a5,12(s0)
800018dc:	00e41583          	lh	a1,14(s0)
800018e0:	01812403          	lw	s0,24(sp)
800018e4:	01c12083          	lw	ra,28(sp)
800018e8:	00098693          	mv	a3,s3
800018ec:	00090613          	mv	a2,s2
800018f0:	00c12983          	lw	s3,12(sp)
800018f4:	01012903          	lw	s2,16(sp)
800018f8:	00048513          	mv	a0,s1
800018fc:	01412483          	lw	s1,20(sp)
80001900:	02010113          	addi	sp,sp,32
80001904:	97cff06f          	j	80000a80 <_write_r>

Disassembly of section .text.__sseek:

80001908 <__sseek>:
__sseek():
80001908:	ff010113          	addi	sp,sp,-16
8000190c:	00812423          	sw	s0,8(sp)
80001910:	00058413          	mv	s0,a1
80001914:	00e59583          	lh	a1,14(a1)
80001918:	00112623          	sw	ra,12(sp)
8000191c:	134000ef          	jal	ra,80001a50 <_lseek_r>
80001920:	fff00793          	li	a5,-1
80001924:	00c45703          	lhu	a4,12(s0)
80001928:	02f51263          	bne	a0,a5,8000194c <__sseek+0x44>
8000192c:	fffff7b7          	lui	a5,0xfffff
80001930:	fff78793          	addi	a5,a5,-1 # ffffefff <_gpio_creg+0x3fffeff3>
80001934:	00e7f7b3          	and	a5,a5,a4
80001938:	00f41623          	sh	a5,12(s0)
8000193c:	00c12083          	lw	ra,12(sp)
80001940:	00812403          	lw	s0,8(sp)
80001944:	01010113          	addi	sp,sp,16
80001948:	00008067          	ret
8000194c:	000017b7          	lui	a5,0x1
80001950:	00f767b3          	or	a5,a4,a5
80001954:	00f41623          	sh	a5,12(s0)
80001958:	04a42a23          	sw	a0,84(s0)
8000195c:	fe1ff06f          	j	8000193c <__sseek+0x34>

Disassembly of section .text.__sclose:

80001960 <__sclose>:
__sclose():
80001960:	00e59583          	lh	a1,14(a1)
80001964:	0040006f          	j	80001968 <_close_r>

Disassembly of section .text._close_r:

80001968 <_close_r>:
_close_r():
80001968:	ff010113          	addi	sp,sp,-16
8000196c:	00812423          	sw	s0,8(sp)
80001970:	00050413          	mv	s0,a0
80001974:	00058513          	mv	a0,a1
80001978:	00001797          	auipc	a5,0x1
8000197c:	8807a023          	sw	zero,-1920(a5) # 800021f8 <errno>
80001980:	00112623          	sw	ra,12(sp)
80001984:	f68fe0ef          	jal	ra,800000ec <__global_pointer$>
80001988:	fff00793          	li	a5,-1
8000198c:	00f51c63          	bne	a0,a5,800019a4 <_close_r+0x3c>
80001990:	00001797          	auipc	a5,0x1
80001994:	86878793          	addi	a5,a5,-1944 # 800021f8 <errno>
80001998:	0007a783          	lw	a5,0(a5)
8000199c:	00078463          	beqz	a5,800019a4 <_close_r+0x3c>
800019a0:	00f42023          	sw	a5,0(s0)
800019a4:	00c12083          	lw	ra,12(sp)
800019a8:	00812403          	lw	s0,8(sp)
800019ac:	01010113          	addi	sp,sp,16
800019b0:	00008067          	ret

Disassembly of section .text._fstat_r:

800019b4 <_fstat_r>:
_fstat_r():
800019b4:	ff010113          	addi	sp,sp,-16
800019b8:	00812423          	sw	s0,8(sp)
800019bc:	00050413          	mv	s0,a0
800019c0:	00058513          	mv	a0,a1
800019c4:	00060593          	mv	a1,a2
800019c8:	00001797          	auipc	a5,0x1
800019cc:	8207a823          	sw	zero,-2000(a5) # 800021f8 <errno>
800019d0:	00112623          	sw	ra,12(sp)
800019d4:	f3cfe0ef          	jal	ra,80000110 <_fstat>
800019d8:	fff00793          	li	a5,-1
800019dc:	00f51c63          	bne	a0,a5,800019f4 <_fstat_r+0x40>
800019e0:	00001797          	auipc	a5,0x1
800019e4:	81878793          	addi	a5,a5,-2024 # 800021f8 <errno>
800019e8:	0007a783          	lw	a5,0(a5)
800019ec:	00078463          	beqz	a5,800019f4 <_fstat_r+0x40>
800019f0:	00f42023          	sw	a5,0(s0)
800019f4:	00c12083          	lw	ra,12(sp)
800019f8:	00812403          	lw	s0,8(sp)
800019fc:	01010113          	addi	sp,sp,16
80001a00:	00008067          	ret

Disassembly of section .text._isatty_r:

80001a04 <_isatty_r>:
_isatty_r():
80001a04:	ff010113          	addi	sp,sp,-16
80001a08:	00812423          	sw	s0,8(sp)
80001a0c:	00050413          	mv	s0,a0
80001a10:	00058513          	mv	a0,a1
80001a14:	00000797          	auipc	a5,0x0
80001a18:	7e07a223          	sw	zero,2020(a5) # 800021f8 <errno>
80001a1c:	00112623          	sw	ra,12(sp)
80001a20:	f24fe0ef          	jal	ra,80000144 <_isatty>
80001a24:	fff00793          	li	a5,-1
80001a28:	00f51c63          	bne	a0,a5,80001a40 <_isatty_r+0x3c>
80001a2c:	00000797          	auipc	a5,0x0
80001a30:	7cc78793          	addi	a5,a5,1996 # 800021f8 <errno>
80001a34:	0007a783          	lw	a5,0(a5)
80001a38:	00078463          	beqz	a5,80001a40 <_isatty_r+0x3c>
80001a3c:	00f42023          	sw	a5,0(s0)
80001a40:	00c12083          	lw	ra,12(sp)
80001a44:	00812403          	lw	s0,8(sp)
80001a48:	01010113          	addi	sp,sp,16
80001a4c:	00008067          	ret

Disassembly of section .text._lseek_r:

80001a50 <_lseek_r>:
_lseek_r():
80001a50:	ff010113          	addi	sp,sp,-16
80001a54:	00812423          	sw	s0,8(sp)
80001a58:	00050413          	mv	s0,a0
80001a5c:	00058513          	mv	a0,a1
80001a60:	00060593          	mv	a1,a2
80001a64:	00068613          	mv	a2,a3
80001a68:	00000797          	auipc	a5,0x0
80001a6c:	7807a823          	sw	zero,1936(a5) # 800021f8 <errno>
80001a70:	00112623          	sw	ra,12(sp)
80001a74:	ef4fe0ef          	jal	ra,80000168 <_lseek>
80001a78:	fff00793          	li	a5,-1
80001a7c:	00f51c63          	bne	a0,a5,80001a94 <_lseek_r+0x44>
80001a80:	00000797          	auipc	a5,0x0
80001a84:	77878793          	addi	a5,a5,1912 # 800021f8 <errno>
80001a88:	0007a783          	lw	a5,0(a5)
80001a8c:	00078463          	beqz	a5,80001a94 <_lseek_r+0x44>
80001a90:	00f42023          	sw	a5,0(s0)
80001a94:	00c12083          	lw	ra,12(sp)
80001a98:	00812403          	lw	s0,8(sp)
80001a9c:	01010113          	addi	sp,sp,16
80001aa0:	00008067          	ret

Disassembly of section .text.memchr:

80001aa4 <memchr>:
memchr():
80001aa4:	0ff5f593          	andi	a1,a1,255
80001aa8:	00c50633          	add	a2,a0,a2
80001aac:	00c51663          	bne	a0,a2,80001ab8 <memchr+0x14>
80001ab0:	00000513          	li	a0,0
80001ab4:	00008067          	ret
80001ab8:	00054783          	lbu	a5,0(a0)
80001abc:	feb78ce3          	beq	a5,a1,80001ab4 <memchr+0x10>
80001ac0:	00150513          	addi	a0,a0,1
80001ac4:	fe9ff06f          	j	80001aac <memchr+0x8>

Disassembly of section .text._printf_common:

80001ac8 <_printf_common>:
_printf_common():
80001ac8:	fd010113          	addi	sp,sp,-48
80001acc:	01512a23          	sw	s5,20(sp)
80001ad0:	0105a783          	lw	a5,16(a1)
80001ad4:	00070a93          	mv	s5,a4
80001ad8:	0085a703          	lw	a4,8(a1)
80001adc:	02812423          	sw	s0,40(sp)
80001ae0:	02912223          	sw	s1,36(sp)
80001ae4:	01312e23          	sw	s3,28(sp)
80001ae8:	01412c23          	sw	s4,24(sp)
80001aec:	02112623          	sw	ra,44(sp)
80001af0:	03212023          	sw	s2,32(sp)
80001af4:	01612823          	sw	s6,16(sp)
80001af8:	01712623          	sw	s7,12(sp)
80001afc:	00050993          	mv	s3,a0
80001b00:	00058413          	mv	s0,a1
80001b04:	00060493          	mv	s1,a2
80001b08:	00068a13          	mv	s4,a3
80001b0c:	00e7d463          	bge	a5,a4,80001b14 <_printf_common+0x4c>
80001b10:	00070793          	mv	a5,a4
80001b14:	00f4a023          	sw	a5,0(s1)
80001b18:	04344703          	lbu	a4,67(s0)
80001b1c:	00070663          	beqz	a4,80001b28 <_printf_common+0x60>
80001b20:	00178793          	addi	a5,a5,1
80001b24:	00f4a023          	sw	a5,0(s1)
80001b28:	00042783          	lw	a5,0(s0)
80001b2c:	0207f793          	andi	a5,a5,32
80001b30:	00078863          	beqz	a5,80001b40 <_printf_common+0x78>
80001b34:	0004a783          	lw	a5,0(s1)
80001b38:	00278793          	addi	a5,a5,2
80001b3c:	00f4a023          	sw	a5,0(s1)
80001b40:	00042903          	lw	s2,0(s0)
80001b44:	00697913          	andi	s2,s2,6
80001b48:	00091e63          	bnez	s2,80001b64 <_printf_common+0x9c>
80001b4c:	01940b13          	addi	s6,s0,25
80001b50:	fff00b93          	li	s7,-1
80001b54:	00c42783          	lw	a5,12(s0)
80001b58:	0004a703          	lw	a4,0(s1)
80001b5c:	40e787b3          	sub	a5,a5,a4
80001b60:	08f94263          	blt	s2,a5,80001be4 <_printf_common+0x11c>
80001b64:	00042783          	lw	a5,0(s0)
80001b68:	04344683          	lbu	a3,67(s0)
80001b6c:	0207f793          	andi	a5,a5,32
80001b70:	00d036b3          	snez	a3,a3
80001b74:	0c079063          	bnez	a5,80001c34 <_printf_common+0x16c>
80001b78:	04340613          	addi	a2,s0,67
80001b7c:	000a0593          	mv	a1,s4
80001b80:	00098513          	mv	a0,s3
80001b84:	000a80e7          	jalr	s5
80001b88:	fff00793          	li	a5,-1
80001b8c:	06f50863          	beq	a0,a5,80001bfc <_printf_common+0x134>
80001b90:	00042783          	lw	a5,0(s0)
80001b94:	00400613          	li	a2,4
80001b98:	0004a703          	lw	a4,0(s1)
80001b9c:	0067f793          	andi	a5,a5,6
80001ba0:	00c42683          	lw	a3,12(s0)
80001ba4:	00000493          	li	s1,0
80001ba8:	00c79863          	bne	a5,a2,80001bb8 <_printf_common+0xf0>
80001bac:	40e684b3          	sub	s1,a3,a4
80001bb0:	0004d463          	bgez	s1,80001bb8 <_printf_common+0xf0>
80001bb4:	00000493          	li	s1,0
80001bb8:	00842783          	lw	a5,8(s0)
80001bbc:	01042703          	lw	a4,16(s0)
80001bc0:	00f75663          	bge	a4,a5,80001bcc <_printf_common+0x104>
80001bc4:	40e787b3          	sub	a5,a5,a4
80001bc8:	00f484b3          	add	s1,s1,a5
80001bcc:	00000913          	li	s2,0
80001bd0:	01a40413          	addi	s0,s0,26
80001bd4:	fff00b13          	li	s6,-1
80001bd8:	09249063          	bne	s1,s2,80001c58 <_printf_common+0x190>
80001bdc:	00000513          	li	a0,0
80001be0:	0200006f          	j	80001c00 <_printf_common+0x138>
80001be4:	00100693          	li	a3,1
80001be8:	000b0613          	mv	a2,s6
80001bec:	000a0593          	mv	a1,s4
80001bf0:	00098513          	mv	a0,s3
80001bf4:	000a80e7          	jalr	s5
80001bf8:	03751a63          	bne	a0,s7,80001c2c <_printf_common+0x164>
80001bfc:	fff00513          	li	a0,-1
80001c00:	02c12083          	lw	ra,44(sp)
80001c04:	02812403          	lw	s0,40(sp)
80001c08:	02412483          	lw	s1,36(sp)
80001c0c:	02012903          	lw	s2,32(sp)
80001c10:	01c12983          	lw	s3,28(sp)
80001c14:	01812a03          	lw	s4,24(sp)
80001c18:	01412a83          	lw	s5,20(sp)
80001c1c:	01012b03          	lw	s6,16(sp)
80001c20:	00c12b83          	lw	s7,12(sp)
80001c24:	03010113          	addi	sp,sp,48
80001c28:	00008067          	ret
80001c2c:	00190913          	addi	s2,s2,1
80001c30:	f25ff06f          	j	80001b54 <_printf_common+0x8c>
80001c34:	00d40733          	add	a4,s0,a3
80001c38:	03000613          	li	a2,48
80001c3c:	04c701a3          	sb	a2,67(a4)
80001c40:	04544703          	lbu	a4,69(s0)
80001c44:	00168793          	addi	a5,a3,1
80001c48:	00f407b3          	add	a5,s0,a5
80001c4c:	00268693          	addi	a3,a3,2
80001c50:	04e781a3          	sb	a4,67(a5)
80001c54:	f25ff06f          	j	80001b78 <_printf_common+0xb0>
80001c58:	00100693          	li	a3,1
80001c5c:	00040613          	mv	a2,s0
80001c60:	000a0593          	mv	a1,s4
80001c64:	00098513          	mv	a0,s3
80001c68:	000a80e7          	jalr	s5
80001c6c:	f96508e3          	beq	a0,s6,80001bfc <_printf_common+0x134>
80001c70:	00190913          	addi	s2,s2,1
80001c74:	f65ff06f          	j	80001bd8 <_printf_common+0x110>

Disassembly of section .text._printf_i:

80001c78 <_printf_i>:
_printf_i():
80001c78:	fd010113          	addi	sp,sp,-48
80001c7c:	02812423          	sw	s0,40(sp)
80001c80:	02912223          	sw	s1,36(sp)
80001c84:	03212023          	sw	s2,32(sp)
80001c88:	01312e23          	sw	s3,28(sp)
80001c8c:	02112623          	sw	ra,44(sp)
80001c90:	01412c23          	sw	s4,24(sp)
80001c94:	01512a23          	sw	s5,20(sp)
80001c98:	01612823          	sw	s6,16(sp)
80001c9c:	00068993          	mv	s3,a3
80001ca0:	0185c683          	lbu	a3,24(a1)
80001ca4:	06e00793          	li	a5,110
80001ca8:	00060913          	mv	s2,a2
80001cac:	00050493          	mv	s1,a0
80001cb0:	00058413          	mv	s0,a1
80001cb4:	04358613          	addi	a2,a1,67
80001cb8:	28f68863          	beq	a3,a5,80001f48 <_printf_i+0x2d0>
80001cbc:	06d7ea63          	bltu	a5,a3,80001d30 <_printf_i+0xb8>
80001cc0:	06300793          	li	a5,99
80001cc4:	0af68e63          	beq	a3,a5,80001d80 <_printf_i+0x108>
80001cc8:	00d7ee63          	bltu	a5,a3,80001ce4 <_printf_i+0x6c>
80001ccc:	2a068c63          	beqz	a3,80001f84 <_printf_i+0x30c>
80001cd0:	05800793          	li	a5,88
80001cd4:	1ef68a63          	beq	a3,a5,80001ec8 <_printf_i+0x250>
80001cd8:	04240a93          	addi	s5,s0,66
80001cdc:	04d40123          	sb	a3,66(s0)
80001ce0:	0b80006f          	j	80001d98 <_printf_i+0x120>
80001ce4:	06400793          	li	a5,100
80001ce8:	00f68663          	beq	a3,a5,80001cf4 <_printf_i+0x7c>
80001cec:	06900793          	li	a5,105
80001cf0:	fef694e3          	bne	a3,a5,80001cd8 <_printf_i+0x60>
80001cf4:	00042783          	lw	a5,0(s0)
80001cf8:	00072503          	lw	a0,0(a4)
80001cfc:	0807f693          	andi	a3,a5,128
80001d00:	00450593          	addi	a1,a0,4
80001d04:	08068e63          	beqz	a3,80001da0 <_printf_i+0x128>
80001d08:	00052783          	lw	a5,0(a0)
80001d0c:	00b72023          	sw	a1,0(a4)
80001d10:	0007d863          	bgez	a5,80001d20 <_printf_i+0xa8>
80001d14:	02d00713          	li	a4,45
80001d18:	40f007b3          	neg	a5,a5
80001d1c:	04e401a3          	sb	a4,67(s0)
80001d20:	00000697          	auipc	a3,0x0
80001d24:	49868693          	addi	a3,a3,1176 # 800021b8 <_global_impure_ptr+0x18>
80001d28:	00a00713          	li	a4,10
80001d2c:	0d80006f          	j	80001e04 <_printf_i+0x18c>
80001d30:	07300793          	li	a5,115
80001d34:	24f68e63          	beq	a3,a5,80001f90 <_printf_i+0x318>
80001d38:	02d7e263          	bltu	a5,a3,80001d5c <_printf_i+0xe4>
80001d3c:	06f00793          	li	a5,111
80001d40:	06f68e63          	beq	a3,a5,80001dbc <_printf_i+0x144>
80001d44:	07000793          	li	a5,112
80001d48:	f8f698e3          	bne	a3,a5,80001cd8 <_printf_i+0x60>
80001d4c:	0005a783          	lw	a5,0(a1)
80001d50:	0207e793          	ori	a5,a5,32
80001d54:	00f5a023          	sw	a5,0(a1)
80001d58:	0140006f          	j	80001d6c <_printf_i+0xf4>
80001d5c:	07500793          	li	a5,117
80001d60:	04f68e63          	beq	a3,a5,80001dbc <_printf_i+0x144>
80001d64:	07800793          	li	a5,120
80001d68:	f6f698e3          	bne	a3,a5,80001cd8 <_printf_i+0x60>
80001d6c:	07800793          	li	a5,120
80001d70:	04f402a3          	sb	a5,69(s0)
80001d74:	00000697          	auipc	a3,0x0
80001d78:	45868693          	addi	a3,a3,1112 # 800021cc <_global_impure_ptr+0x2c>
80001d7c:	1580006f          	j	80001ed4 <_printf_i+0x25c>
80001d80:	00072783          	lw	a5,0(a4)
80001d84:	04258a93          	addi	s5,a1,66
80001d88:	00478693          	addi	a3,a5,4
80001d8c:	0007a783          	lw	a5,0(a5)
80001d90:	00d72023          	sw	a3,0(a4)
80001d94:	04f58123          	sb	a5,66(a1)
80001d98:	00100793          	li	a5,1
80001d9c:	2240006f          	j	80001fc0 <_printf_i+0x348>
80001da0:	0407f693          	andi	a3,a5,64
80001da4:	00052783          	lw	a5,0(a0)
80001da8:	00b72023          	sw	a1,0(a4)
80001dac:	f60682e3          	beqz	a3,80001d10 <_printf_i+0x98>
80001db0:	01079793          	slli	a5,a5,0x10
80001db4:	4107d793          	srai	a5,a5,0x10
80001db8:	f59ff06f          	j	80001d10 <_printf_i+0x98>
80001dbc:	00042583          	lw	a1,0(s0)
80001dc0:	00072783          	lw	a5,0(a4)
80001dc4:	0805f813          	andi	a6,a1,128
80001dc8:	00478513          	addi	a0,a5,4
80001dcc:	00080863          	beqz	a6,80001ddc <_printf_i+0x164>
80001dd0:	00a72023          	sw	a0,0(a4)
80001dd4:	0007a783          	lw	a5,0(a5)
80001dd8:	0140006f          	j	80001dec <_printf_i+0x174>
80001ddc:	0405f593          	andi	a1,a1,64
80001de0:	00a72023          	sw	a0,0(a4)
80001de4:	fe0588e3          	beqz	a1,80001dd4 <_printf_i+0x15c>
80001de8:	0007d783          	lhu	a5,0(a5)
80001dec:	06f00713          	li	a4,111
80001df0:	14e68063          	beq	a3,a4,80001f30 <_printf_i+0x2b8>
80001df4:	00000697          	auipc	a3,0x0
80001df8:	3c468693          	addi	a3,a3,964 # 800021b8 <_global_impure_ptr+0x18>
80001dfc:	00a00713          	li	a4,10
80001e00:	040401a3          	sb	zero,67(s0)
80001e04:	00442583          	lw	a1,4(s0)
80001e08:	00b42423          	sw	a1,8(s0)
80001e0c:	0005c863          	bltz	a1,80001e1c <_printf_i+0x1a4>
80001e10:	00042503          	lw	a0,0(s0)
80001e14:	ffb57513          	andi	a0,a0,-5
80001e18:	00a42023          	sw	a0,0(s0)
80001e1c:	00079663          	bnez	a5,80001e28 <_printf_i+0x1b0>
80001e20:	00060a93          	mv	s5,a2
80001e24:	02058263          	beqz	a1,80001e48 <_printf_i+0x1d0>
80001e28:	00060a93          	mv	s5,a2
80001e2c:	02e7f5b3          	remu	a1,a5,a4
80001e30:	fffa8a93          	addi	s5,s5,-1
80001e34:	00b685b3          	add	a1,a3,a1
80001e38:	0005c583          	lbu	a1,0(a1)
80001e3c:	00ba8023          	sb	a1,0(s5)
80001e40:	02e7d5b3          	divu	a1,a5,a4
80001e44:	0ee7fe63          	bgeu	a5,a4,80001f40 <_printf_i+0x2c8>
80001e48:	00800793          	li	a5,8
80001e4c:	02f71463          	bne	a4,a5,80001e74 <_printf_i+0x1fc>
80001e50:	00042783          	lw	a5,0(s0)
80001e54:	0017f793          	andi	a5,a5,1
80001e58:	00078e63          	beqz	a5,80001e74 <_printf_i+0x1fc>
80001e5c:	00442703          	lw	a4,4(s0)
80001e60:	01042783          	lw	a5,16(s0)
80001e64:	00e7c863          	blt	a5,a4,80001e74 <_printf_i+0x1fc>
80001e68:	03000793          	li	a5,48
80001e6c:	fefa8fa3          	sb	a5,-1(s5)
80001e70:	fffa8a93          	addi	s5,s5,-1
80001e74:	41560633          	sub	a2,a2,s5
80001e78:	00c42823          	sw	a2,16(s0)
80001e7c:	00098713          	mv	a4,s3
80001e80:	00090693          	mv	a3,s2
80001e84:	00c10613          	addi	a2,sp,12
80001e88:	00040593          	mv	a1,s0
80001e8c:	00048513          	mv	a0,s1
80001e90:	c39ff0ef          	jal	ra,80001ac8 <_printf_common>
80001e94:	fff00a13          	li	s4,-1
80001e98:	13451a63          	bne	a0,s4,80001fcc <_printf_i+0x354>
80001e9c:	fff00513          	li	a0,-1
80001ea0:	02c12083          	lw	ra,44(sp)
80001ea4:	02812403          	lw	s0,40(sp)
80001ea8:	02412483          	lw	s1,36(sp)
80001eac:	02012903          	lw	s2,32(sp)
80001eb0:	01c12983          	lw	s3,28(sp)
80001eb4:	01812a03          	lw	s4,24(sp)
80001eb8:	01412a83          	lw	s5,20(sp)
80001ebc:	01012b03          	lw	s6,16(sp)
80001ec0:	03010113          	addi	sp,sp,48
80001ec4:	00008067          	ret
80001ec8:	04d582a3          	sb	a3,69(a1)
80001ecc:	00000697          	auipc	a3,0x0
80001ed0:	2ec68693          	addi	a3,a3,748 # 800021b8 <_global_impure_ptr+0x18>
80001ed4:	00042583          	lw	a1,0(s0)
80001ed8:	00072503          	lw	a0,0(a4)
80001edc:	0805f813          	andi	a6,a1,128
80001ee0:	00052783          	lw	a5,0(a0)
80001ee4:	00450513          	addi	a0,a0,4
80001ee8:	02080863          	beqz	a6,80001f18 <_printf_i+0x2a0>
80001eec:	00a72023          	sw	a0,0(a4)
80001ef0:	0015f713          	andi	a4,a1,1
80001ef4:	00070663          	beqz	a4,80001f00 <_printf_i+0x288>
80001ef8:	0205e593          	ori	a1,a1,32
80001efc:	00b42023          	sw	a1,0(s0)
80001f00:	01000713          	li	a4,16
80001f04:	ee079ee3          	bnez	a5,80001e00 <_printf_i+0x188>
80001f08:	00042583          	lw	a1,0(s0)
80001f0c:	fdf5f593          	andi	a1,a1,-33
80001f10:	00b42023          	sw	a1,0(s0)
80001f14:	eedff06f          	j	80001e00 <_printf_i+0x188>
80001f18:	0405f813          	andi	a6,a1,64
80001f1c:	00a72023          	sw	a0,0(a4)
80001f20:	fc0808e3          	beqz	a6,80001ef0 <_printf_i+0x278>
80001f24:	01079793          	slli	a5,a5,0x10
80001f28:	0107d793          	srli	a5,a5,0x10
80001f2c:	fc5ff06f          	j	80001ef0 <_printf_i+0x278>
80001f30:	00000697          	auipc	a3,0x0
80001f34:	28868693          	addi	a3,a3,648 # 800021b8 <_global_impure_ptr+0x18>
80001f38:	00800713          	li	a4,8
80001f3c:	ec5ff06f          	j	80001e00 <_printf_i+0x188>
80001f40:	00058793          	mv	a5,a1
80001f44:	ee9ff06f          	j	80001e2c <_printf_i+0x1b4>
80001f48:	0005a683          	lw	a3,0(a1)
80001f4c:	00072783          	lw	a5,0(a4)
80001f50:	0145a583          	lw	a1,20(a1)
80001f54:	0806f813          	andi	a6,a3,128
80001f58:	00478513          	addi	a0,a5,4
80001f5c:	00080a63          	beqz	a6,80001f70 <_printf_i+0x2f8>
80001f60:	00a72023          	sw	a0,0(a4)
80001f64:	0007a783          	lw	a5,0(a5)
80001f68:	00b7a023          	sw	a1,0(a5)
80001f6c:	0180006f          	j	80001f84 <_printf_i+0x30c>
80001f70:	00a72023          	sw	a0,0(a4)
80001f74:	0406f693          	andi	a3,a3,64
80001f78:	0007a783          	lw	a5,0(a5)
80001f7c:	fe0686e3          	beqz	a3,80001f68 <_printf_i+0x2f0>
80001f80:	00b79023          	sh	a1,0(a5)
80001f84:	00042823          	sw	zero,16(s0)
80001f88:	00060a93          	mv	s5,a2
80001f8c:	ef1ff06f          	j	80001e7c <_printf_i+0x204>
80001f90:	00072783          	lw	a5,0(a4)
80001f94:	0045a603          	lw	a2,4(a1)
80001f98:	00000593          	li	a1,0
80001f9c:	00478693          	addi	a3,a5,4
80001fa0:	00d72023          	sw	a3,0(a4)
80001fa4:	0007aa83          	lw	s5,0(a5)
80001fa8:	000a8513          	mv	a0,s5
80001fac:	af9ff0ef          	jal	ra,80001aa4 <memchr>
80001fb0:	00050663          	beqz	a0,80001fbc <_printf_i+0x344>
80001fb4:	41550533          	sub	a0,a0,s5
80001fb8:	00a42223          	sw	a0,4(s0)
80001fbc:	00442783          	lw	a5,4(s0)
80001fc0:	00f42823          	sw	a5,16(s0)
80001fc4:	040401a3          	sb	zero,67(s0)
80001fc8:	eb5ff06f          	j	80001e7c <_printf_i+0x204>
80001fcc:	01042683          	lw	a3,16(s0)
80001fd0:	000a8613          	mv	a2,s5
80001fd4:	00090593          	mv	a1,s2
80001fd8:	00048513          	mv	a0,s1
80001fdc:	000980e7          	jalr	s3
80001fe0:	eb450ee3          	beq	a0,s4,80001e9c <_printf_i+0x224>
80001fe4:	00042783          	lw	a5,0(s0)
80001fe8:	0027f793          	andi	a5,a5,2
80001fec:	04079463          	bnez	a5,80002034 <_printf_i+0x3bc>
80001ff0:	00c12783          	lw	a5,12(sp)
80001ff4:	00c42503          	lw	a0,12(s0)
80001ff8:	eaf554e3          	bge	a0,a5,80001ea0 <_printf_i+0x228>
80001ffc:	00078513          	mv	a0,a5
80002000:	ea1ff06f          	j	80001ea0 <_printf_i+0x228>
80002004:	00100693          	li	a3,1
80002008:	000a8613          	mv	a2,s5
8000200c:	00090593          	mv	a1,s2
80002010:	00048513          	mv	a0,s1
80002014:	000980e7          	jalr	s3
80002018:	e96502e3          	beq	a0,s6,80001e9c <_printf_i+0x224>
8000201c:	001a0a13          	addi	s4,s4,1
80002020:	00c42783          	lw	a5,12(s0)
80002024:	00c12703          	lw	a4,12(sp)
80002028:	40e787b3          	sub	a5,a5,a4
8000202c:	fcfa4ce3          	blt	s4,a5,80002004 <_printf_i+0x38c>
80002030:	fc1ff06f          	j	80001ff0 <_printf_i+0x378>
80002034:	00000a13          	li	s4,0
80002038:	01940a93          	addi	s5,s0,25
8000203c:	fff00b13          	li	s6,-1
80002040:	fe1ff06f          	j	80002020 <_printf_i+0x3a8>

Disassembly of section .text._read_r:

80002044 <_read_r>:
_read_r():
80002044:	ff010113          	addi	sp,sp,-16
80002048:	00812423          	sw	s0,8(sp)
8000204c:	00050413          	mv	s0,a0
80002050:	00058513          	mv	a0,a1
80002054:	00060593          	mv	a1,a2
80002058:	00068613          	mv	a2,a3
8000205c:	00000797          	auipc	a5,0x0
80002060:	1807ae23          	sw	zero,412(a5) # 800021f8 <errno>
80002064:	00112623          	sw	ra,12(sp)
80002068:	92cfe0ef          	jal	ra,80000194 <_read>
8000206c:	fff00793          	li	a5,-1
80002070:	00f51c63          	bne	a0,a5,80002088 <_read_r+0x44>
80002074:	00000797          	auipc	a5,0x0
80002078:	18478793          	addi	a5,a5,388 # 800021f8 <errno>
8000207c:	0007a783          	lw	a5,0(a5)
80002080:	00078463          	beqz	a5,80002088 <_read_r+0x44>
80002084:	00f42023          	sw	a5,0(s0)
80002088:	00c12083          	lw	ra,12(sp)
8000208c:	00812403          	lw	s0,8(sp)
80002090:	01010113          	addi	sp,sp,16
80002094:	00008067          	ret
